//////////////////////////////////////////////////////////////////////////////
//                                                                           /
// IAR ARM ANSI C/C++ Compiler V4.42A/W32 EVALUATION   08/Aug/2011  16:45:26 /
// Copyright 1999-2005 IAR Systems. All rights reserved.                     /
//                                                                           /
//    Cpu mode        =  thumb                                               /
//    Endian          =  little                                              /
//    Stack alignment =  4                                                   /
//    Source file     =  D:\Design\DS203\PRG\APP_V2.51\source\Draw.c         /
//    Command line    =  D:\Design\DS203\PRG\APP_V2.51\source\Draw.c -lA     /
//                       D:\Design\DS203\PRG\APP_V2.51\IAR_V4_Prpject\List\  /
//                       -o D:\Design\DS203\PRG\APP_V2.51\IAR_V4_Prpject\Obj /
//                       \ -s9 --debug --cpu_mode thumb --endian little      /
//                       --cpu cortex-M3 --stack_align 4 --fpu None          /
//                       --dlib_config "C:\Program Files\IAR                 /
//                       Systems\Embedded Workbench 4.0                      /
//                       Evaluation\arm\LIB\dl7mptnnl8f.h" -I                /
//                       D:\Design\DS203\PRG\APP_V2.51\IAR_V4_Prpject\..\..\ /
//                       FWLib\inc\ -I D:\Design\DS203\PRG\APP_V2.51\IAR_V4_ /
//                       Prpject\..\..\USBLib\inc\ -I                        /
//                       D:\Design\DS203\PRG\APP_V2.51\IAR_V4_Prpject\..\inc /
//                       lude\ -I "C:\Program Files\IAR Systems\Embedded     /
//                       Workbench 4.0 Evaluation\arm\INC\"                  /
//                       --inline_threshold=16                               /
//    List file       =  D:\Design\DS203\PRG\APP_V2.51\IAR_V4_Prpject\List\D /
//                       raw.s79                                             /
//                                                                           /
//                                                                           /
//////////////////////////////////////////////////////////////////////////////

        NAME Draw

        RTMODEL "StackAlign4", "USED"
        RTMODEL "__cpu_mode", "__pcs__thumb"
        RTMODEL "__data_model", "absolute"
        RTMODEL "__endian", "little"
        RTMODEL "__rt_version", "6"

        RSEG CSTACK:DATA:NOROOT(2)

        EXTERN ??div32_t

        PUBWEAK `?*?DATA_ID`
??DataTable0 EQU 0
??DataTable1 EQU 0
??DataTable10 EQU 0
??DataTable11 EQU 0
??DataTable2 EQU 0
??DataTable3 EQU 0
        MULTWEAK ??__LCD_Copy??rT
        MULTWEAK ??__LCD_DMA_Ready??rT
        MULTWEAK ??__LCD_SetPixl??rT
        MULTWEAK ??__LCD_Set_Block??rT
        MULTWEAK ??__Point_SCR??rT
        MULTWEAK ??__Row_Copy??rT
        MULTWEAK ??__Row_DMA_Ready??rT
        MULTWEAK ??rT??div32_t
        PUBWEAK ?init?tab?DATA_I
        PUBWEAK ?init?tab?DATA_Z
        PUBLIC CLK_TAB
        PUBLIC Char_TAB_8x11
        PUBLIC Color
        PUBLIC Draw_Mark
        FUNCTION Draw_Mark,0203H
        LOCFRAME CSTACK, 44, STACK
        PUBLIC Draw_Row
        FUNCTION Draw_Row,0203H
        LOCFRAME CSTACK, 108, STACK
        PUBLIC Draw_Window
        FUNCTION Draw_Window,0203H
        LOCFRAME CSTACK, 12, STACK
        PUBLIC Get_Ref_Wave
        FUNCTION Get_Ref_Wave,0203H
        PUBLIC Get_TAB_8x11
        FUNCTION Get_TAB_8x11,0203H
        PUBLIC LCD_Buffer1
        PUBLIC LCD_Buffer2
        PUBLIC Mark_TAB
        PUBLIC Mark_TAB_1
        PUBLIC Mark_TAB_2
        PUBLIC Mark_TAB_3
        PUBLIC Mark_TAB_4
        PUBLIC Mark_TAB_T
        PUBLIC Print_Clk
        FUNCTION Print_Clk,0203H
        LOCFRAME CSTACK, 28, STACK
        PUBLIC Print_Str
        FUNCTION Print_Str,0203H
        LOCFRAME CSTACK, 36, STACK
        PUBLIC RULE_BASE
        PUBLIC Ref_Wave
        PUBLIC Row_Base0
        PUBLIC Row_Base1
        PUBLIC Row_Base2
        PUBLIC Row_Base3
        PUBLIC Row_Base4
        PUBLIC Update_Mark
        FUNCTION Update_Mark,0203H
        LOCFRAME CSTACK, 28, STACK
        PUBLIC Update_View_Area
        FUNCTION Update_View_Area,0203H
        LOCFRAME CSTACK, 28, STACK
        PUBLIC V_Trigg
        PUBLIC Vt1
        PUBLIC Vt2
        PUBLIC Vt3
        PUBLIC Vt4
        
        CFI Names cfiNames0
        CFI StackFrame CFA R13 HUGEDATA
        CFI Resource R0:32, R1:32, R2:32, R3:32, R4:32, R5:32, R6:32, R7:32
        CFI Resource R8:32, R9:32, R10:32, R11:32, R12:32, R13:32, R14:32
        CFI VirtualResource ?RET:32
        CFI EndNames cfiNames0
        
        CFI Common cfiCommon0 Using cfiNames0
        CFI CodeAlign 2
        CFI DataAlign 4
        CFI ReturnAddress ?RET CODE
        CFI CFA R13+0
        CFI R0 Undefined
        CFI R1 Undefined
        CFI R2 Undefined
        CFI R3 Undefined
        CFI R4 SameValue
        CFI R5 SameValue
        CFI R6 SameValue
        CFI R7 SameValue
        CFI R8 SameValue
        CFI R9 SameValue
        CFI R10 SameValue
        CFI R11 SameValue
        CFI R12 Undefined
        CFI R14 Undefined
        CFI ?RET R14
        CFI EndCommon cfiCommon0
        
__LCD_Copy          SYMBOL "__LCD_Copy"
__LCD_DMA_Ready     SYMBOL "__LCD_DMA_Ready"
__LCD_SetPixl       SYMBOL "__LCD_SetPixl"
__LCD_Set_Block     SYMBOL "__LCD_Set_Block"
__Point_SCR         SYMBOL "__Point_SCR"
__Row_Copy          SYMBOL "__Row_Copy"
__Row_DMA_Ready     SYMBOL "__Row_DMA_Ready"
??__LCD_Copy??rT    SYMBOL "??rT", __LCD_Copy
??__LCD_DMA_Ready??rT SYMBOL "??rT", __LCD_DMA_Ready
??__LCD_SetPixl??rT SYMBOL "??rT", __LCD_SetPixl
??__LCD_Set_Block??rT SYMBOL "??rT", __LCD_Set_Block
??__Point_SCR??rT   SYMBOL "??rT", __Point_SCR
??__Row_Copy??rT    SYMBOL "??rT", __Row_Copy
??__Row_DMA_Ready??rT SYMBOL "??rT", __Row_DMA_Ready

        EXTERN Title
        EXTERN TrackBuff
        EXTERN __LCD_Copy
        FUNCTION __LCD_Copy,0202H
        EXTERN __LCD_DMA_Ready
        FUNCTION __LCD_DMA_Ready,0202H
        EXTERN __LCD_SetPixl
        FUNCTION __LCD_SetPixl,0202H
        EXTERN __LCD_Set_Block
        FUNCTION __LCD_Set_Block,0202H
        EXTERN __Point_SCR
        FUNCTION __Point_SCR,0202H
        EXTERN __Row_Copy
        FUNCTION __Row_Copy,0202H
        EXTERN __Row_DMA_Ready
        FUNCTION __Row_DMA_Ready,0202H

// D:\Design\DS203\PRG\APP_V2.51\source\Draw.c
//    1 /******************** (C) COPYRIGHT 2009 e-Design Co.,Ltd. *********************
//    2  File Name : Draw.c       
//    3  Version   : DS203_APP Ver 2.3x                                  Author : bure
//    4 *******************************************************************************/
//    5 #include "Process.h"
//    6 #include "Draw.h"
//    7 #include "Menu.h"
//    8 #include "BIOS.h"
//    9 

        RSEG DATA_C:CONST:SORT:NOROOT(2)
//   10 uc16 RULE_BASE [8] ={0x020,0x040,0x080,0x040,0x020,0x010,0x008,0x010};
RULE_BASE:
        DATA
        DC16 32, 64, 128, 64, 32, 16, 8, 16
//   11 

        RSEG DATA_C:CONST:SORT:NOROOT(2)
//   12 uc8  Mark_TAB_1[7] ={0x00,0x00,0x42,0xFE,0x02,0x00,0x00};      // Mark 1
Mark_TAB_1:
        DATA
        DC8 0, 0, 66, 254, 2, 0, 0, 0

        RSEG DATA_C:CONST:SORT:NOROOT(2)
//   13 uc8  Mark_TAB_2[7] ={0x00,0x46,0x8A,0x92,0x92,0x62,0x00};      // Mark 2
Mark_TAB_2:
        DATA
        DC8 0, 70, 138, 146, 146, 98, 0, 0

        RSEG DATA_C:CONST:SORT:NOROOT(2)
//   14 uc8  Mark_TAB_3[7] ={0x00,0x44,0x82,0x92,0x92,0x6C,0x00};      // Mark 3
Mark_TAB_3:
        DATA
        DC8 0, 68, 130, 146, 146, 108, 0, 0

        RSEG DATA_C:CONST:SORT:NOROOT(2)
//   15 uc8  Mark_TAB_4[7] ={0x00,0x18,0x28,0x4A,0xFE,0x0A,0x00};      // Mark 4
Mark_TAB_4:
        DATA
        DC8 0, 24, 40, 74, 254, 10, 0, 0

        RSEG DATA_C:CONST:SORT:NOROOT(2)
//   16 uc8  Mark_TAB_T[7] ={0x00,0x40,0x40,0x7E,0x40,0x40,0x00};      // Mark T
Mark_TAB_T:
        DATA
        DC8 0, 64, 64, 126, 64, 64, 0, 0
//   17 

        RSEG DATA_C:CONST:SORT:NOROOT(2)
//   18 uc8  Mark_TAB[5][7] ={{0x00,0x00,0x42,0xFE,0x02,0x00,0x00},    // Mark 1
Mark_TAB:
        DATA
        DC8 0, 0, 66, 254, 2, 0, 0, 0, 70, 138, 146, 146, 98, 0, 0, 68, 130
        DC8 146, 146, 108, 0, 0, 24, 40, 74, 254, 10, 0, 0, 64, 64, 126, 64, 64
        DC8 0, 0
//   19                       {0x00,0x46,0x8A,0x92,0x92,0x62,0x00},    // Mark 2
//   20                       {0x00,0x44,0x82,0x92,0x92,0x6C,0x00},    // Mark 3
//   21                       {0x00,0x18,0x28,0x4A,0xFE,0x0A,0x00},    // Mark 4
//   22                       {0x00,0x40,0x40,0x7E,0x40,0x40,0x00}};   // Mark T
//   23 

        RSEG DATA_C:CONST:SORT:NOROOT(2)
//   24 uc16 CLK_TAB[44] =
CLK_TAB:
        DATA
        DC16 0, 0, 0, 0, 112, 1023, 112, 0, 0, 0, 0, 0, 2, 4, 8, 112, 112, 112
        DC16 128, 256, 512, 0, 32, 32, 32, 32, 112, 112, 112, 32, 32, 32, 32, 0
        DC16 512, 256, 128, 112, 112, 112, 8, 4, 2, 0
//   25   {0x000,0x000,0x000,0x000,0x070,0x3FF,0x070,0x000,0x000,0x000,0x000,
//   26    0x000,0x002,0x004,0x008,0x070,0x070,0x070,0x080,0x100,0x200,0x000,
//   27    0x020,0x020,0x020,0x020,0x070,0x070,0x070,0x020,0x020,0x020,0x020,
//   28    0x000,0x200,0x100,0x080,0x070,0x070,0x070,0x008,0x004,0x002,0x000};
//   29 

        RSEG DATA_C:CONST:SORT:NOROOT(2)
//   30 uc16 Char_TAB_8x11[744] = {
Char_TAB_8x11:
        DATA
        DC16 0, 0, 0, 1920, 64, 32, 32, 32, 508, 508, 508, 508, 508, 508, 508
        DC16 0, 112, 248, 508, 508, 508, 248, 112, 0, 780, 396, 192, 96, 48
        DC16 792, 780, 0, 0, 384, 608, 540, 618, 644, 320, 0, 514, 514, 514
        DC16 514, 514, 514, 1022, 0, 0, 0, 248, 508, 774, 514, 0, 0, 0, 0, 514
        DC16 774, 508, 248, 0, 0, 0, 396, 216, 112, 112, 216, 396, 0, 0, 32, 32
        DC16 248, 248, 32, 32, 0, 32, 32, 16, 15, 0, 0, 0, 0, 0, 32, 32, 32, 32
        DC16 32, 32, 0, 0, 0, 768, 768, 0, 0, 0, 0, 384, 192, 96, 48, 24, 12, 6
        DC16 0, 508, 1022, 578, 546, 530, 1022, 508, 0, 0, 520, 524, 1022, 1022
        DC16 512, 512, 0, 772, 902, 706, 610, 562, 798, 780, 0, 260, 774, 546
        DC16 546, 546, 1022, 476, 0, 96, 112, 88, 588, 1022, 1022, 576, 0, 286
        DC16 542, 530, 530, 530, 1010, 482, 0, 504, 1020, 550, 546, 546, 992
        DC16 448, 0, 6, 6, 962, 994, 50, 30, 14, 0, 476, 1022, 546, 546, 546
        DC16 1022, 476, 0, 28, 574, 546, 546, 802, 510, 252, 0, 0, 0, 0, 408
        DC16 408, 0, 0, 0, 762, 762, 762, 762, 762, 762, 762, 762, 0, 32, 112
        DC16 216, 396, 774, 514, 0, 144, 144, 144, 144, 144, 144, 0, 0, 0, 514
        DC16 774, 396, 216, 112, 32, 0, 24, 28, 4, 836, 868, 60, 24, 0, 504
        DC16 260, 626, 626, 754, 644, 120, 0, 1008, 1016, 76, 70, 76, 1016
        DC16 1008, 0, 514, 1022, 1022, 546, 546, 1022, 476, 0, 248, 508, 774
        DC16 514, 514, 774, 396, 0, 514, 1022, 1022, 514, 774, 508, 248, 0, 514
        DC16 1022, 1022, 546, 626, 774, 910, 0, 514, 1022, 1022, 546, 114, 6
        DC16 14, 0, 248, 508, 774, 546, 546, 486, 1004, 0, 1022, 1022, 32, 32
        DC16 32, 1022, 1022, 0, 0, 0, 514, 1022, 1022, 514, 0, 0, 448, 960, 512
        DC16 514, 1022, 510, 2, 0, 514, 1022, 1022, 48, 248, 974, 774, 0, 514
        DC16 1022, 1022, 514, 512, 512, 768, 0, 1022, 1022, 28, 56, 28, 1022
        DC16 1022, 0, 1022, 1022, 28, 56, 112, 1022, 1022, 0, 248, 508, 774
        DC16 514, 774, 508, 248, 0, 514, 1022, 1022, 546, 34, 62, 28, 0, 508
        DC16 1022, 514, 642, 770, 1022, 508, 0, 514, 1022, 1022, 34, 98, 1022
        DC16 924, 0, 268, 798, 562, 546, 610, 974, 396, 0, 0, 14, 518, 1022
        DC16 1022, 518, 14, 0, 510, 1022, 512, 512, 512, 1022, 510, 0, 126, 254
        DC16 384, 768, 384, 254, 126, 0, 254, 1022, 896, 480, 896, 1022, 254, 0
        DC16 774, 990, 248, 32, 248, 990, 774, 0, 0, 30, 574, 992, 992, 574, 30
        DC16 0, 910, 966, 610, 562, 798, 910, 0, 0, 512, 768, 704, 544, 536
        DC16 516, 1022, 0, 0, 34, 66, 510, 1022, 576, 544, 0, 32, 16, 8, 6, 8
        DC16 16, 32, 32, 0, 544, 528, 1020, 1022, 18, 34, 0, 0, 512, 512, 512
        DC16 512, 512, 512, 0, 514, 514, 514, 514, 514, 514, 514, 514, 448
        DC16 1000, 552, 552, 504, 1008, 512, 0, 514, 1022, 510, 544, 544, 992
        DC16 448, 0, 480, 1008, 528, 528, 528, 816, 288, 0, 0, 448, 992, 544
        DC16 546, 1022, 1022, 0, 480, 1008, 592, 592, 592, 880, 352, 0, 0, 544
        DC16 1020, 1022, 546, 2, 4, 0, 304, 888, 584, 584, 1016, 504, 0, 0, 514
        DC16 1022, 1022, 32, 16, 1008, 992, 0, 0, 0, 512, 1014, 1014, 512, 0, 0
        DC16 0, 256, 768, 528, 1014, 502, 0, 0, 514, 1022, 1022, 98, 240, 920
        DC16 776, 0, 0, 0, 514, 1022, 1022, 512, 0, 0, 1016, 1016, 24, 1008, 24
        DC16 1016, 1008, 0, 8, 1016, 1008, 8, 8, 1016, 1008, 0, 0, 496, 1016
        DC16 520, 520, 1016, 496, 0, 520, 1016, 1008, 584, 72, 120, 48, 0, 48
        DC16 120, 72, 584, 1016, 1016, 512, 0, 520, 1016, 1008, 536, 8, 24, 48
        DC16 0, 0, 272, 824, 616, 584, 984, 400, 0, 16, 16, 504, 1020, 528, 784
        DC16 256, 0, 504, 1016, 512, 512, 504, 1016, 512, 0, 0, 248, 504, 768
        DC16 768, 504, 248, 0, 248, 1016, 768, 384, 768, 1016, 248, 0, 520, 792
        DC16 432, 224, 432, 792, 520, 0, 56, 632, 576, 576, 576, 504, 248, 0
        DC16 792, 904, 712, 616, 568, 792, 0, 0, 248, 136, 910, 34, 762, 762
        DC16 762, 762, 0, 0, 0, 1022, 1022, 0, 0, 0, 762, 762, 762, 762, 762
        DC16 514, 1022, 0, 248, 136, 910, 514, 514, 514, 514, 514
//   31   0x000,0x000,0x000,0x780,0x040,0x020,0x020,0x020, // " 左上角
//   32 //  0x020,0x020,0x040,0x780,0x000,0x000,0x000,0x000, // # 右上角
//   33   0x1FC,0x1FC,0x1FC,0x1FC,0x1FC,0x1FC,0x1FC,0x000, // # 方块
//   34 //  0x000,0x000,0x000,0x00F,0x010,0x020,0x020,0x020, // $ 左下角
//   35   0x070,0x0F8,0x1FC,0x1FC,0x1FC,0x0F8,0x070,0x000, // $ 圆点
//   36   0x30C,0x18C,0x0C0,0x060,0x030,0x318,0x30C,0x000, // % 
//   37   0x000,0x180,0x260,0x21C,0x26A,0x284,0x140,0x000, // & 
//   38   0x202,0x202,0x202,0x202,0x202,0x202,0x3FE,0x000, // ' 电池尾空
//   39   0x000,0x000,0x0F8,0x1FC,0x306,0x202,0x000,0x000, // (
//   40   0x000,0x000,0x202,0x306,0x1FC,0x0F8,0x000,0x000, // )
//   41   0x000,0x18C,0x0D8,0x070,0x070,0x0D8,0x18C,0x000, // *  ×
//   42   0x000,0x020,0x020,0x0F8,0x0F8,0x020,0x020,0x000, // + 
//   43   0x020,0x020,0x010,0x00F,0x000,0x000,0x000,0x000, // , 右下角
//   44   0x000,0x020,0x020,0x020,0x020,0x020,0x020,0x000, // -
//   45   0x000,0x000,0x300,0x300,0x000,0x000,0x000,0x000, // .
//   46   0x180,0x0C0,0x060,0x030,0x018,0x00C,0x006,0x000, // / 
//   47   0x1FC,0x3FE,0x242,0x222,0x212,0x3FE,0x1FC,0x000, // 0
//   48   0x000,0x208,0x20C,0x3FE,0x3FE,0x200,0x200,0x000, // 1
//   49   0x304,0x386,0x2C2,0x262,0x232,0x31E,0x30C,0x000, // 2
//   50   0x104,0x306,0x222,0x222,0x222,0x3FE,0x1DC,0x000, // 3
//   51   0x060,0x070,0x058,0x24C,0x3FE,0x3FE,0x240,0x000, // 4
//   52   0x11E,0x21E,0x212,0x212,0x212,0x3F2,0x1E2,0x000, // 5
//   53   0x1F8,0x3FC,0x226,0x222,0x222,0x3E0,0x1C0,0x000, // 6
//   54   0x006,0x006,0x3C2,0x3E2,0x032,0x01E,0x00E,0x000, // 7
//   55   0x1DC,0x3FE,0x222,0x222,0x222,0x3FE,0x1DC,0x000, // 8
//   56   0x01C,0x23E,0x222,0x222,0x322,0x1FE,0x0FC,0x000, // 9
//   57   0x000,0x000,0x000,0x198,0x198,0x000,0x000,0x000, // : 
//   58   0x2FA,0x2FA,0x2FA,0x2FA,0x2FA,0x2FA,0x2FA,0x2FA, // ; 电池身
//   59   0x000,0x020,0x070,0x0D8,0x18C,0x306,0x202,0x000, // <
//   60   0x090,0x090,0x090,0x090,0x090,0x090,0x000,0x000, // =  
//   61   0x000,0x202,0x306,0x18C,0x0D8,0x070,0x020,0x000, // >
//   62   0x018,0x01C,0x004,0x344,0x364,0x03C,0x018,0x000, // ? 
//   63   0x1F8,0x104,0x272,0x272,0x2F2,0x284,0x078,0x000, // @ 
//   64   0x3F0,0x3F8,0x04C,0x046,0x04C,0x3F8,0x3F0,0x000, // A
//   65   0x202,0x3FE,0x3FE,0x222,0x222,0x3FE,0x1DC,0x000, // B
//   66   0x0F8,0x1FC,0x306,0x202,0x202,0x306,0x18C,0x000, // C
//   67   0x202,0x3FE,0x3FE,0x202,0x306,0x1FC,0x0F8,0x000, // D
//   68   0x202,0x3FE,0x3FE,0x222,0x272,0x306,0x38E,0x000, // E
//   69   0x202,0x3FE,0x3FE,0x222,0x072,0x006,0x00E,0x000, // F
//   70   0x0F8,0x1FC,0x306,0x222,0x222,0x1E6,0x3EC,0x000, // G
//   71   0x3FE,0x3FE,0x020,0x020,0x020,0x3FE,0x3FE,0x000, // H
//   72   0x000,0x000,0x202,0x3FE,0x3FE,0x202,0x000,0x000, // I
//   73   0x1C0,0x3C0,0x200,0x202,0x3FE,0x1FE,0x002,0x000, // J
//   74   0x202,0x3FE,0x3FE,0x030,0x0F8,0x3CE,0x306,0x000, // K
//   75   0x202,0x3FE,0x3FE,0x202,0x200,0x200,0x300,0x000, // L
//   76   0x3FE,0x3FE,0x01C,0x038,0x01C,0x3FE,0x3FE,0x000, // M
//   77   0x3FE,0x3FE,0x01C,0x038,0x070,0x3FE,0x3FE,0x000, // N
//   78   0x0F8,0x1FC,0x306,0x202,0x306,0x1FC,0x0F8,0x000, // O
//   79   0x202,0x3FE,0x3FE,0x222,0x022,0x03E,0x01C,0x000, // P
//   80   0x1FC,0x3FE,0x202,0x282,0x302,0x3FE,0x1FC,0x000, // Q
//   81   0x202,0x3FE,0x3FE,0x022,0x062,0x3FE,0x39C,0x000, // R
//   82   0x10C,0x31E,0x232,0x222,0x262,0x3CE,0x18C,0x000, // S
//   83   0x000,0x00E,0x206,0x3FE,0x3FE,0x206,0x00E,0x000, // T
//   84   0x1FE,0x3FE,0x200,0x200,0x200,0x3FE,0x1FE,0x000, // U
//   85   0x07E,0x0FE,0x180,0x300,0x180,0x0FE,0x07E,0x000, // V
//   86   0x0FE,0x3FE,0x380,0x1E0,0x380,0x3FE,0x0FE,0x000, // W
//   87   0x306,0x3DE,0x0F8,0x020,0x0F8,0x3DE,0x306,0x000, // X
//   88   0x000,0x01E,0x23E,0x3E0,0x3E0,0x23E,0x01E,0x000, // Y
//   89   0x38E,0x3C6,0x262,0x232,0x31E,0x38E,0x000,0x000, // Z
//   90   0x200,0x300,0x2C0,0x220,0x218,0x204,0x3FE,0x000, // [ 三角       
//   91   0x000,0x022,0x042,0x1FE,0x3FE,0x240,0x220,0x000, // \下降沿   
//   92   0x020,0x010,0x008,0x006,0x008,0x010,0x020,0x020, // ] 指针    
//   93   0x000,0x220,0x210,0x3FC,0x3FE,0x012,0x022,0x000, // ^ 上升沿  
//   94   0x000,0x200,0x200,0x200,0x200,0x200,0x200,0x000, // _ 下横线  
//   95   0x202,0x202,0x202,0x202,0x202,0x202,0x202,0x202, // ` 电池身空
//   96   0x1C0,0x3E8,0x228,0x228,0x1F8,0x3F0,0x200,0x000, // a         
//   97   0x202,0x3FE,0x1FE,0x220,0x220,0x3E0,0x1C0,0x000, // b 
//   98   0x1E0,0x3F0,0x210,0x210,0x210,0x330,0x120,0x000, // c 
//   99   0x000,0x1C0,0x3E0,0x220,0x222,0x3FE,0x3FE,0x000, // d 
//  100   0x1E0,0x3F0,0x250,0x250,0x250,0x370,0x160,0x000, // e 
//  101   0x000,0x220,0x3FC,0x3FE,0x222,0x002,0x004,0x000, // f
//  102   0x130,0x378,0x248,0x248,0x3F8,0x1F8,0x000,0x000, // g
//  103   0x202,0x3FE,0x3FE,0x020,0x010,0x3F0,0x3E0,0x000, // h
//  104   0x000,0x000,0x200,0x3F6,0x3F6,0x200,0x000,0x000, // i 
//  105   0x000,0x100,0x300,0x210,0x3F6,0x1F6,0x000,0x000, // j
//  106   0x202,0x3FE,0x3FE,0x062,0x0F0,0x398,0x308,0x000, // k
//  107   0x000,0x000,0x202,0x3FE,0x3FE,0x200,0x000,0x000, // l
//  108   0x3F8,0x3F8,0x018,0x3F0,0x018,0x3F8,0x3F0,0x000, // m 
//  109   0x008,0x3F8,0x3F0,0x008,0x008,0x3F8,0x3F0,0x000, // n 
//  110   0x000,0x1F0,0x3F8,0x208,0x208,0x3F8,0x1F0,0x000, // o
//  111   0x208,0x3F8,0x3F0,0x248,0x048,0x078,0x030,0x000, // p 
//  112   0x030,0x078,0x048,0x248,0x3F8,0x3F8,0x200,0x000, // q
//  113   0x208,0x3F8,0x3F0,0x218,0x008,0x018,0x030,0x000, // r 
//  114   0x000,0x110,0x338,0x268,0x248,0x3D8,0x190,0x000, // s 
//  115   0x010,0x010,0x1F8,0x3FC,0x210,0x310,0x100,0x000, // t
//  116   0x1F8,0x3F8,0x200,0x200,0x1F8,0x3F8,0x200,0x000, // u 
//  117   0x000,0x0F8,0x1F8,0x300,0x300,0x1F8,0x0F8,0x000, // v
//  118   0x0F8,0x3F8,0x300,0x180,0x300,0x3F8,0x0F8,0x000, // w
//  119   0x208,0x318,0x1B0,0x0E0,0x1B0,0x318,0x208,0x000, // x
//  120   0x038,0x278,0x240,0x240,0x240,0x1F8,0x0F8,0x000, // y
//  121   0x318,0x388,0x2C8,0x268,0x238,0x318,0x000,0x000, // z 
//  122   0x0F8,0x088,0x38E,0x022,0x2FA,0x2FA,0x2FA,0x2FA, // { 电池头
//  123   0x000,0x000,0x000,0x3FE,0x3FE,0x000,0x000,0x000, // | 
//  124   0x2FA,0x2FA,0x2FA,0x2FA,0x2FA,0x202,0x3FE,0x000, // } 电池尾
//  125   0x0F8,0x088,0x38E,0x202,0x202,0x202,0x202,0x202};// ~ 空电池头
//  126 

        RSEG DATA_C:CONST:SORT:NOROOT(2)
//  127 uc8  Ref_Wave [300] =   //样本波形描述
Ref_Wave:
        DATA
        DC8 100, 116, 130, 144, 157, 167, 175, 181, 185, 185, 184, 179, 173
        DC8 164, 153, 141, 128, 114, 100, 86, 73, 60, 49, 40, 33, 27, 24, 24
        DC8 25, 29, 35, 43, 52, 63, 75, 87, 100, 112, 124, 135, 145, 153, 160
        DC8 164, 167, 167, 166, 163, 157, 150, 142, 133, 122, 111, 100, 89, 79
        DC8 70, 61, 54, 48, 44, 42, 42, 43, 46, 50, 57, 64, 72, 81, 90, 100
        DC8 109, 118, 126, 133, 139, 144, 147, 149, 149, 148, 146, 142, 137
        DC8 130, 124, 116, 108, 100, 93, 85, 79, 73, 68, 64, 61, 60, 60, 61, 63
        DC8 66, 70, 75, 81, 87, 93, 100, 106, 112, 117, 122, 125, 128, 130, 131
        DC8 131, 131, 129, 126, 123, 119, 115, 110, 105, 100, 96, 91, 88, 84
        DC8 81, 79, 78, 77, 78, 78, 80, 82, 84, 87, 90, 93, 97, 100, 103, 106
        DC8 108, 110, 112, 113, 114, 114, 113, 113, 112, 110, 109, 107, 105
        DC8 104, 102, 100, 99, 97, 96, 96, 95, 95, 95, 95, 96, 96, 97, 97, 98
        DC8 99, 99, 100, 100, 100, 100, 100, 100, 100, 100, 100, 100, 100, 100
        DC8 100, 100, 100, 100, 100, 100, 100, 100, 100, 100, 100, 100, 100
        DC8 100, 100, 100, 100, 100, 100, 100, 100, 100, 100, 100, 100, 100
        DC8 100, 100, 100, 100, 100, 100, 100, 100, 100, 115, 129, 141, 151
        DC8 160, 165, 169, 170, 169, 167, 162, 156, 148, 139, 130, 120, 110
        DC8 100, 91, 82, 75, 68, 63, 59, 57, 56, 56, 58, 61, 64, 69, 75, 81, 87
        DC8 94, 100, 106, 112, 117, 121, 125, 127, 129, 130, 130, 128, 127, 124
        DC8 121, 117, 113, 109, 104, 100, 96, 92, 88, 85, 83, 81, 80, 79, 79
        DC8 80, 81, 83, 85, 88, 91, 94, 97, 100, 103, 106, 108
//  128 {100,116,130,144,157,167,175,181,185,185,184,179,173,164,153,141,128,114,100, 86,
//  129   73, 60, 49, 40, 33, 27, 24, 24, 25, 29, 35, 43, 52, 63, 75, 87,100,112,124,135,
//  130  145,153,160,164,167,167,166,163,157,150,142,133,122,111,100, 89, 79, 70, 61, 54,
//  131   48, 44, 42, 42, 43, 46, 50, 57, 64, 72, 81, 90,100,109,118,126,133,139,144,147,
//  132  149,149,148,146,142,137,130,124,116,108,100, 93, 85, 79, 73, 68, 64, 61, 60, 60,
//  133   61, 63, 66, 70, 75, 81, 87, 93,100,106,112,117,122,125,128,130,131,131,131,129,
//  134  126,123,119,115,110,105,100, 96, 91, 88, 84, 81, 79, 78, 77, 78, 78, 80, 82, 84, 
//  135   87, 90, 93, 97,100,103,106,108,110,112,113,114,114,113,113,112,110,109,107,105,
//  136  104,102,100,99, 97, 96, 96, 95, 95, 95, 95, 96, 96, 97, 97, 98, 99, 99, 100,100,
//  137  100,100,100,100,100,100,100,100,100,100,100,100,100,100,100,100,100,100,100,100,
//  138  100,100,100,100,100,100,100,100,100,100,100,100,100,100,100,100,100,100,100,100,
//  139  100,100,100,100,100,115,129,141,151,160,165,169,170,169,167,162,156,148,139,130,
//  140  120,110,100, 91, 82, 75, 68, 63, 59, 57, 56, 56, 58, 61, 64, 69, 75, 81, 87, 94,
//  141  100,106,112,117,121,125,127,129,130,130,128,127,124,121,117,113,109,104,100, 96, 
//  142   92, 88, 85, 83, 81, 80, 79, 79, 80, 81, 83, 85, 88, 91, 94, 97,100,103,106,108,};
//  143 

        RSEG DATA_C:CONST:SORT:NOROOT(2)
//  144 uc16  Row_Base0[201] =     //空白列基础数据
Row_Base0:
        DATA
        DC16 0, 0, 0, 0, 0, 0, 0, 0, 0, 0, 0, 0, 0, 0, 0, 0, 0, 0, 0, 0, 0, 0
        DC16 0, 0, 0, 0, 0, 0, 0, 0, 0, 0, 0, 0, 0, 0, 0, 0, 0, 0, 0, 0, 0, 0
        DC16 0, 0, 0, 0, 0, 0, 0, 0, 0, 0, 0, 0, 0, 0, 0, 0, 0, 0, 0, 0, 0, 0
        DC16 0, 0, 0, 0, 0, 0, 0, 0, 0, 0, 0, 0, 0, 0, 0, 0, 0, 0, 0, 0, 0, 0
        DC16 0, 0, 0, 0, 0, 0, 0, 0, 0, 0, 0, 0, 0, 0, 0, 0, 0, 0, 0, 0, 0, 0
        DC16 0, 0, 0, 0, 0, 0, 0, 0, 0, 0, 0, 0, 0, 0, 0, 0, 0, 0, 0, 0, 0, 0
        DC16 0, 0, 0, 0, 0, 0, 0, 0, 0, 0, 0, 0, 0, 0, 0, 0, 0, 0, 0, 0, 0, 0
        DC16 0, 0, 0, 0, 0, 0, 0, 0, 0, 0, 0, 0, 0, 0, 0, 0, 0, 0, 0, 0, 0, 0
        DC16 0, 0, 0, 0, 0, 0, 0, 0, 0, 0, 0, 0, 0, 0, 0, 0, 0, 0, 0, 0, 0, 0
        DC16 0, 0, 0
        DC8 0, 0
//  145 {BLACK,BLACK,BLACK,BLACK,BLACK,BLACK,BLACK,BLACK,BLACK,BLACK, // 00~10
//  146  BLACK,BLACK,BLACK,BLACK,BLACK,BLACK,BLACK,BLACK,BLACK,BLACK, // 10~20
//  147  BLACK,BLACK,BLACK,BLACK,BLACK,BLACK,BLACK,BLACK,BLACK,BLACK, // 20~30
//  148  BLACK,BLACK,BLACK,BLACK,BLACK,BLACK,BLACK,BLACK,BLACK,BLACK, // 30~40
//  149  BLACK,BLACK,BLACK,BLACK,BLACK,BLACK,BLACK,BLACK,BLACK,BLACK, // 40~50
//  150  BLACK,BLACK,BLACK,BLACK,BLACK,BLACK,BLACK,BLACK,BLACK,BLACK, // 50~60
//  151  BLACK,BLACK,BLACK,BLACK,BLACK,BLACK,BLACK,BLACK,BLACK,BLACK, // 60~70
//  152  BLACK,BLACK,BLACK,BLACK,BLACK,BLACK,BLACK,BLACK,BLACK,BLACK, // 70~80
//  153  BLACK,BLACK,BLACK,BLACK,BLACK,BLACK,BLACK,BLACK,BLACK,BLACK, // 80~90
//  154  BLACK,BLACK,BLACK,BLACK,BLACK,BLACK,BLACK,BLACK,BLACK,BLACK, // 90~00
//  155  BLACK,BLACK,BLACK,BLACK,BLACK,BLACK,BLACK,BLACK,BLACK,BLACK, // 00~10
//  156  BLACK,BLACK,BLACK,BLACK,BLACK,BLACK,BLACK,BLACK,BLACK,BLACK, // 10~20
//  157  BLACK,BLACK,BLACK,BLACK,BLACK,BLACK,BLACK,BLACK,BLACK,BLACK, // 20~30
//  158  BLACK,BLACK,BLACK,BLACK,BLACK,BLACK,BLACK,BLACK,BLACK,BLACK, // 30~40
//  159  BLACK,BLACK,BLACK,BLACK,BLACK,BLACK,BLACK,BLACK,BLACK,BLACK, // 40~50
//  160  BLACK,BLACK,BLACK,BLACK,BLACK,BLACK,BLACK,BLACK,BLACK,BLACK, // 50~60
//  161  BLACK,BLACK,BLACK,BLACK,BLACK,BLACK,BLACK,BLACK,BLACK,BLACK, // 60~70
//  162  BLACK,BLACK,BLACK,BLACK,BLACK,BLACK,BLACK,BLACK,BLACK,BLACK, // 70~80
//  163  BLACK,BLACK,BLACK,BLACK,BLACK,BLACK,BLACK,BLACK,BLACK,BLACK, // 80~90
//  164  BLACK,BLACK,BLACK,BLACK,BLACK,BLACK,BLACK,BLACK,BLACK,BLACK, // 90~00
//  165  BLACK };
//  166    

        RSEG DATA_C:CONST:SORT:NOROOT(2)
//  167 uc16  Row_Base1[201] =     //仅含垂直边线的列基础数据
Row_Base1:
        DATA
        DC16 31727, 31727, 31727, 31727, 31727, 31727, 31727, 31727, 31727
        DC16 31727, 31727, 31727, 31727, 31727, 31727, 31727, 31727, 31727
        DC16 31727, 31727, 31727, 31727, 31727, 31727, 31727, 31727, 31727
        DC16 31727, 31727, 31727, 31727, 31727, 31727, 31727, 31727, 31727
        DC16 31727, 31727, 31727, 31727, 31727, 31727, 31727, 31727, 31727
        DC16 31727, 31727, 31727, 31727, 31727, 31727, 31727, 31727, 31727
        DC16 31727, 31727, 31727, 31727, 31727, 31727, 31727, 31727, 31727
        DC16 31727, 31727, 31727, 31727, 31727, 31727, 31727, 31727, 31727
        DC16 31727, 31727, 31727, 31727, 31727, 31727, 31727, 31727, 31727
        DC16 31727, 31727, 31727, 31727, 31727, 31727, 31727, 31727, 31727
        DC16 31727, 31727, 31727, 31727, 31727, 31727, 31727, 31727, 31727
        DC16 31727, 31727, 31727, 31727, 31727, 31727, 31727, 31727, 31727
        DC16 31727, 31727, 31727, 31727, 31727, 31727, 31727, 31727, 31727
        DC16 31727, 31727, 31727, 31727, 31727, 31727, 31727, 31727, 31727
        DC16 31727, 31727, 31727, 31727, 31727, 31727, 31727, 31727, 31727
        DC16 31727, 31727, 31727, 31727, 31727, 31727, 31727, 31727, 31727
        DC16 31727, 31727, 31727, 31727, 31727, 31727, 31727, 31727, 31727
        DC16 31727, 31727, 31727, 31727, 31727, 31727, 31727, 31727, 31727
        DC16 31727, 31727, 31727, 31727, 31727, 31727, 31727, 31727, 31727
        DC16 31727, 31727, 31727, 31727, 31727, 31727, 31727, 31727, 31727
        DC16 31727, 31727, 31727, 31727, 31727, 31727, 31727, 31727, 31727
        DC16 31727, 31727, 31727, 31727, 31727, 31727, 31727, 31727, 31727
        DC16 31727, 31727, 31727
        DC8 0, 0
//  168 {GRAY ,GRAY ,GRAY ,GRAY ,GRAY ,GRAY ,GRAY ,GRAY ,GRAY ,GRAY , // 00~10
//  169  GRAY ,GRAY ,GRAY ,GRAY ,GRAY ,GRAY ,GRAY ,GRAY ,GRAY ,GRAY , // 10~20
//  170  GRAY ,GRAY ,GRAY ,GRAY ,GRAY ,GRAY ,GRAY ,GRAY ,GRAY ,GRAY , // 20~30
//  171  GRAY ,GRAY ,GRAY ,GRAY ,GRAY ,GRAY ,GRAY ,GRAY ,GRAY ,GRAY , // 30~40
//  172  GRAY ,GRAY ,GRAY ,GRAY ,GRAY ,GRAY ,GRAY ,GRAY ,GRAY ,GRAY , // 40~50
//  173  GRAY ,GRAY ,GRAY ,GRAY ,GRAY ,GRAY ,GRAY ,GRAY ,GRAY ,GRAY , // 50~60
//  174  GRAY ,GRAY ,GRAY ,GRAY ,GRAY ,GRAY ,GRAY ,GRAY ,GRAY ,GRAY , // 60~70
//  175  GRAY ,GRAY ,GRAY ,GRAY ,GRAY ,GRAY ,GRAY ,GRAY ,GRAY ,GRAY , // 70~80
//  176  GRAY ,GRAY ,GRAY ,GRAY ,GRAY ,GRAY ,GRAY ,GRAY ,GRAY ,GRAY , // 80~90
//  177  GRAY ,GRAY ,GRAY ,GRAY ,GRAY ,GRAY ,GRAY ,GRAY ,GRAY ,GRAY , // 90~00
//  178  GRAY ,GRAY ,GRAY ,GRAY ,GRAY ,GRAY ,GRAY ,GRAY ,GRAY ,GRAY , // 00~10
//  179  GRAY ,GRAY ,GRAY ,GRAY ,GRAY ,GRAY ,GRAY ,GRAY ,GRAY ,GRAY , // 10~20
//  180  GRAY ,GRAY ,GRAY ,GRAY ,GRAY ,GRAY ,GRAY ,GRAY ,GRAY ,GRAY , // 20~30
//  181  GRAY ,GRAY ,GRAY ,GRAY ,GRAY ,GRAY ,GRAY ,GRAY ,GRAY ,GRAY , // 30~40
//  182  GRAY ,GRAY ,GRAY ,GRAY ,GRAY ,GRAY ,GRAY ,GRAY ,GRAY ,GRAY , // 40~50
//  183  GRAY ,GRAY ,GRAY ,GRAY ,GRAY ,GRAY ,GRAY ,GRAY ,GRAY ,GRAY , // 50~60
//  184  GRAY ,GRAY ,GRAY ,GRAY ,GRAY ,GRAY ,GRAY ,GRAY ,GRAY ,GRAY , // 60~70
//  185  GRAY ,GRAY ,GRAY ,GRAY ,GRAY ,GRAY ,GRAY ,GRAY ,GRAY ,GRAY , // 70~80
//  186  GRAY ,GRAY ,GRAY ,GRAY ,GRAY ,GRAY ,GRAY ,GRAY ,GRAY ,GRAY , // 80~90
//  187  GRAY ,GRAY ,GRAY ,GRAY ,GRAY ,GRAY ,GRAY ,GRAY ,GRAY ,GRAY , // 90~00
//  188  GRAY };
//  189    
//  190 uc16  Row_Base2[201] =     //仅含水平边线的列基础数据
Row_Base2:
        DC16 31727, 0, 0, 0, 0, 0, 0, 0, 0, 0, 0, 0, 0, 0, 0, 0, 0, 0, 0, 0, 0
        DC16 0, 0, 0, 0, 0, 0, 0, 0, 0, 0, 0, 0, 0, 0, 0, 0, 0, 0, 0, 0, 0, 0
        DC16 0, 0, 0, 0, 0, 0, 0, 0, 0, 0, 0, 0, 0, 0, 0, 0, 0, 0, 0, 0, 0, 0
        DC16 0, 0, 0, 0, 0, 0, 0, 0, 0, 0, 0, 0, 0, 0, 0, 0, 0, 0, 0, 0, 0, 0
        DC16 0, 0, 0, 0, 0, 0, 0, 0, 0, 0, 0, 0, 0, 0, 0, 0, 0, 0, 0, 0, 0, 0
        DC16 0, 0, 0, 0, 0, 0, 0, 0, 0, 0, 0, 0, 0, 0, 0, 0, 0, 0, 0, 0, 0, 0
        DC16 0, 0, 0, 0, 0, 0, 0, 0, 0, 0, 0, 0, 0, 0, 0, 0, 0, 0, 0, 0, 0, 0
        DC16 0, 0, 0, 0, 0, 0, 0, 0, 0, 0, 0, 0, 0, 0, 0, 0, 0, 0, 0, 0, 0, 0
        DC16 0, 0, 0, 0, 0, 0, 0, 0, 0, 0, 0, 0, 0, 0, 0, 0, 0, 0, 0, 0, 0, 0
        DC16 0, 0, 0, 31727
        DC8 0, 0
//  191 {GRAY ,BLACK,BLACK,BLACK,BLACK,BLACK,BLACK,BLACK,BLACK,BLACK, // 00~10
//  192  BLACK,BLACK,BLACK,BLACK,BLACK,BLACK,BLACK,BLACK,BLACK,BLACK, // 10~20
//  193  BLACK,BLACK,BLACK,BLACK,BLACK,BLACK,BLACK,BLACK,BLACK,BLACK, // 20~30
//  194  BLACK,BLACK,BLACK,BLACK,BLACK,BLACK,BLACK,BLACK,BLACK,BLACK, // 30~40
//  195  BLACK,BLACK,BLACK,BLACK,BLACK,BLACK,BLACK,BLACK,BLACK,BLACK, // 40~50
//  196  BLACK,BLACK,BLACK,BLACK,BLACK,BLACK,BLACK,BLACK,BLACK,BLACK, // 50~60
//  197  BLACK,BLACK,BLACK,BLACK,BLACK,BLACK,BLACK,BLACK,BLACK,BLACK, // 60~70
//  198  BLACK,BLACK,BLACK,BLACK,BLACK,BLACK,BLACK,BLACK,BLACK,BLACK, // 70~80
//  199  BLACK,BLACK,BLACK,BLACK,BLACK,BLACK,BLACK,BLACK,BLACK,BLACK, // 80~90
//  200  BLACK,BLACK,BLACK,BLACK,BLACK,BLACK,BLACK,BLACK,BLACK,BLACK, // 90~00
//  201  BLACK,BLACK,BLACK,BLACK,BLACK,BLACK,BLACK,BLACK,BLACK,BLACK, // 00~10
//  202  BLACK,BLACK,BLACK,BLACK,BLACK,BLACK,BLACK,BLACK,BLACK,BLACK, // 10~20
//  203  BLACK,BLACK,BLACK,BLACK,BLACK,BLACK,BLACK,BLACK,BLACK,BLACK, // 20~30
//  204  BLACK,BLACK,BLACK,BLACK,BLACK,BLACK,BLACK,BLACK,BLACK,BLACK, // 30~40
//  205  BLACK,BLACK,BLACK,BLACK,BLACK,BLACK,BLACK,BLACK,BLACK,BLACK, // 40~50
//  206  BLACK,BLACK,BLACK,BLACK,BLACK,BLACK,BLACK,BLACK,BLACK,BLACK, // 50~60
//  207  BLACK,BLACK,BLACK,BLACK,BLACK,BLACK,BLACK,BLACK,BLACK,BLACK, // 60~70
//  208  BLACK,BLACK,BLACK,BLACK,BLACK,BLACK,BLACK,BLACK,BLACK,BLACK, // 70~80
//  209  BLACK,BLACK,BLACK,BLACK,BLACK,BLACK,BLACK,BLACK,BLACK,BLACK, // 80~90
//  210  BLACK,BLACK,BLACK,BLACK,BLACK,BLACK,BLACK,BLACK,BLACK,BLACK, // 90~00
//  211  GRAY };
//  212    
//  213 uc16  Row_Base3[201] =     //含水平格线和水平边线的列基础数据
Row_Base3:
        DC16 31727, 0, 0, 0, 0, 0, 0, 0, 0, 0, 0, 0, 0, 0, 0, 0, 0, 0, 0, 0, 0
        DC16 0, 0, 0, 0, 31727, 0, 0, 0, 0, 0, 0, 0, 0, 0, 0, 0, 0, 0, 0, 0, 0
        DC16 0, 0, 0, 0, 0, 0, 0, 0, 31727, 0, 0, 0, 0, 0, 0, 0, 0, 0, 0, 0, 0
        DC16 0, 0, 0, 0, 0, 0, 0, 0, 0, 0, 0, 0, 31727, 0, 0, 0, 0, 0, 0, 0, 0
        DC16 0, 0, 0, 0, 0, 0, 0, 0, 0, 0, 0, 0, 0, 0, 0, 0, 31727, 0, 0, 0, 0
        DC16 0, 0, 0, 0, 0, 0, 0, 0, 0, 0, 0, 0, 0, 0, 0, 0, 0, 0, 0, 0, 31727
        DC16 0, 0, 0, 0, 0, 0, 0, 0, 0, 0, 0, 0, 0, 0, 0, 0, 0, 0, 0, 0, 0, 0
        DC16 0, 0, 31727, 0, 0, 0, 0, 0, 0, 0, 0, 0, 0, 0, 0, 0, 0, 0, 0, 0, 0
        DC16 0, 0, 0, 0, 0, 0, 31727, 0, 0, 0, 0, 0, 0, 0, 0, 0, 0, 0, 0, 0, 0
        DC16 0, 0, 0, 0, 0, 0, 0, 0, 0, 0, 31727
        DC8 0, 0
//  214 {GRAY ,BLACK,BLACK,BLACK,BLACK,BLACK,BLACK,BLACK,BLACK,BLACK, // 00~10
//  215  BLACK,BLACK,BLACK,BLACK,BLACK,BLACK,BLACK,BLACK,BLACK,BLACK, // 10~20
//  216  BLACK,BLACK,BLACK,BLACK,BLACK,GRAY ,BLACK,BLACK,BLACK,BLACK, // 20~30
//  217  BLACK,BLACK,BLACK,BLACK,BLACK,BLACK,BLACK,BLACK,BLACK,BLACK, // 30~40
//  218  BLACK,BLACK,BLACK,BLACK,BLACK,BLACK,BLACK,BLACK,BLACK,BLACK, // 40~50
//  219  GRAY ,BLACK,BLACK,BLACK,BLACK,BLACK,BLACK,BLACK,BLACK,BLACK, // 50~60
//  220  BLACK,BLACK,BLACK,BLACK,BLACK,BLACK,BLACK,BLACK,BLACK,BLACK, // 60~70
//  221  BLACK,BLACK,BLACK,BLACK,BLACK,GRAY ,BLACK,BLACK,BLACK,BLACK, // 70~80
//  222  BLACK,BLACK,BLACK,BLACK,BLACK,BLACK,BLACK,BLACK,BLACK,BLACK, // 80~90
//  223  BLACK,BLACK,BLACK,BLACK,BLACK,BLACK,BLACK,BLACK,BLACK,BLACK, // 90~00
//  224  GRAY ,BLACK,BLACK,BLACK,BLACK,BLACK,BLACK,BLACK,BLACK,BLACK, // 00~10
//  225  BLACK,BLACK,BLACK,BLACK,BLACK,BLACK,BLACK,BLACK,BLACK,BLACK, // 10~20
//  226  BLACK,BLACK,BLACK,BLACK,BLACK,GRAY ,BLACK,BLACK,BLACK,BLACK, // 20~30
//  227  BLACK,BLACK,BLACK,BLACK,BLACK,BLACK,BLACK,BLACK,BLACK,BLACK, // 30~40
//  228  BLACK,BLACK,BLACK,BLACK,BLACK,BLACK,BLACK,BLACK,BLACK,BLACK, // 40~50
//  229  GRAY ,BLACK,BLACK,BLACK,BLACK,BLACK,BLACK,BLACK,BLACK,BLACK, // 50~60
//  230  BLACK,BLACK,BLACK,BLACK,BLACK,BLACK,BLACK,BLACK,BLACK,BLACK, // 60~70
//  231  BLACK,BLACK,BLACK,BLACK,BLACK,GRAY ,BLACK,BLACK,BLACK,BLACK, // 70~80
//  232  BLACK,BLACK,BLACK,BLACK,BLACK,BLACK,BLACK,BLACK,BLACK,BLACK, // 80~90
//  233  BLACK,BLACK,BLACK,BLACK,BLACK,BLACK,BLACK,BLACK,BLACK,BLACK, // 90~00
//  234  GRAY };
//  235    
//  236 uc16  Row_Base4[201] =     //含垂直格线和水平边线的列基础数据
Row_Base4:
        DC16 31727, 0, 0, 0, 0, 31727, 0, 0, 0, 0, 31727, 0, 0, 0, 0, 31727, 0
        DC16 0, 0, 0, 31727, 0, 0, 0, 0, 31727, 0, 0, 0, 0, 31727, 0, 0, 0, 0
        DC16 31727, 0, 0, 0, 0, 31727, 0, 0, 0, 0, 31727, 0, 0, 0, 0, 31727, 0
        DC16 0, 0, 0, 31727, 0, 0, 0, 0, 31727, 0, 0, 0, 0, 31727, 0, 0, 0, 0
        DC16 31727, 0, 0, 0, 0, 31727, 0, 0, 0, 0, 31727, 0, 0, 0, 0, 31727, 0
        DC16 0, 0, 0, 31727, 0, 0, 0, 0, 31727, 0, 0, 0, 0, 31727, 0, 0, 0, 0
        DC16 31727, 0, 0, 0, 0, 31727, 0, 0, 0, 0, 31727, 0, 0, 0, 0, 31727, 0
        DC16 0, 0, 0, 31727, 0, 0, 0, 0, 31727, 0, 0, 0, 0, 31727, 0, 0, 0, 0
        DC16 31727, 0, 0, 0, 0, 31727, 0, 0, 0, 0, 31727, 0, 0, 0, 0, 31727, 0
        DC16 0, 0, 0, 31727, 0, 0, 0, 0, 31727, 0, 0, 0, 0, 31727, 0, 0, 0, 0
        DC16 31727, 0, 0, 0, 0, 31727, 0, 0, 0, 0, 31727, 0, 0, 0, 0, 31727, 0
        DC16 0, 0, 0, 31727, 0, 0, 0, 0, 31727
        DC8 0, 0
//  237 {GRAY ,BLACK,BLACK,BLACK,BLACK,GRAY ,BLACK,BLACK,BLACK,BLACK, // 00~10
//  238  GRAY ,BLACK,BLACK,BLACK,BLACK,GRAY ,BLACK,BLACK,BLACK,BLACK, // 10~20
//  239  GRAY ,BLACK,BLACK,BLACK,BLACK,GRAY ,BLACK,BLACK,BLACK,BLACK, // 20~30
//  240  GRAY ,BLACK,BLACK,BLACK,BLACK,GRAY ,BLACK,BLACK,BLACK,BLACK, // 30~40
//  241  GRAY ,BLACK,BLACK,BLACK,BLACK,GRAY ,BLACK,BLACK,BLACK,BLACK, // 40~50
//  242  GRAY ,BLACK,BLACK,BLACK,BLACK,GRAY ,BLACK,BLACK,BLACK,BLACK, // 50~60
//  243  GRAY ,BLACK,BLACK,BLACK,BLACK,GRAY ,BLACK,BLACK,BLACK,BLACK, // 60~70
//  244  GRAY ,BLACK,BLACK,BLACK,BLACK,GRAY ,BLACK,BLACK,BLACK,BLACK, // 70~80
//  245  GRAY ,BLACK,BLACK,BLACK,BLACK,GRAY ,BLACK,BLACK,BLACK,BLACK, // 80~90
//  246  GRAY ,BLACK,BLACK,BLACK,BLACK,GRAY ,BLACK,BLACK,BLACK,BLACK, // 90~00
//  247  GRAY ,BLACK,BLACK,BLACK,BLACK,GRAY ,BLACK,BLACK,BLACK,BLACK, // 00~10
//  248  GRAY ,BLACK,BLACK,BLACK,BLACK,GRAY ,BLACK,BLACK,BLACK,BLACK, // 10~20
//  249  GRAY ,BLACK,BLACK,BLACK,BLACK,GRAY ,BLACK,BLACK,BLACK,BLACK, // 20~30
//  250  GRAY ,BLACK,BLACK,BLACK,BLACK,GRAY ,BLACK,BLACK,BLACK,BLACK, // 30~40
//  251  GRAY ,BLACK,BLACK,BLACK,BLACK,GRAY ,BLACK,BLACK,BLACK,BLACK, // 40~50
//  252  GRAY ,BLACK,BLACK,BLACK,BLACK,GRAY ,BLACK,BLACK,BLACK,BLACK, // 50~60
//  253  GRAY ,BLACK,BLACK,BLACK,BLACK,GRAY ,BLACK,BLACK,BLACK,BLACK, // 60~70
//  254  GRAY ,BLACK,BLACK,BLACK,BLACK,GRAY ,BLACK,BLACK,BLACK,BLACK, // 70~80
//  255  GRAY ,BLACK,BLACK,BLACK,BLACK,GRAY ,BLACK,BLACK,BLACK,BLACK, // 80~90
//  256  GRAY ,BLACK,BLACK,BLACK,BLACK,GRAY ,BLACK,BLACK,BLACK,BLACK, // 90~00
//  257  GRAY };
//  258    

        RSEG DATA_I:DATA:SORT:NOROOT(2)
//  259 u16 Color[16] = { CYAN,   // #0  TRACK1 
Color:
        DS8 32
        REQUIRE `?<Initializer for Color>`
//  260                   YEL,    // #1  TRACK2
//  261                   PURPL,  // #2  TRACK3 
//  262                   GRN,    // #3  TRACK4 
//  263                   WHT,    // #4  VERNIE   
//  264                   BLACK,  // #5  SCRN
//  265                   ORANGE, // #6  X_POSI 
//  266                   BLUE,   // #7  TRIGG 
//  267                   CYAN,   // #8  VERNIE  
//  268                   GRAY,   // #9  GRID 
//  269                   WHT,    // #10 TEXT 
//  270                   GRN,    // #11 TEXT2
//  271                   BLUE,   // #12 TEXT3
//  272                   GRAY,   // #13 BLOCK
//  273                   YEL,    // #14 SIDE
//  274                   RED };  // #15 NOTE 
//  275 
//  276 trigg V_Trigg[4] = {// Value,  Flag:( HID=0x04, UPDAT=0x02 )
V_Trigg:
        DS8 16
        REQUIRE `?<Initializer for V_Trigg>`
//  277                      {   175,  UPDAT + HID },
//  278                      {   116,  UPDAT       },
//  279                      {    75,  UPDAT + HID },
//  280                      {    35,  UPDAT + HID },
//  281                    };

        RSEG DATA_Z:DATA:SORT:NOROOT(2)
//  282 u16 LCD_Buffer1[240], LCD_Buffer2[240];
LCD_Buffer1:
        DS8 480
LCD_Buffer2:
        DS8 480

        RSEG DATA_I:DATA:SORT:NOROOT(0)
//  283 u8  Vt1=180, Vt2=128, Vt3=70, Vt4=30;
Vt1:
        DS8 1
        REQUIRE `?<Initializer for Vt1>`

        RSEG DATA_I:DATA:SORT:NOROOT(0)
Vt2:
        DS8 1
        REQUIRE `?<Initializer for Vt2>`

        RSEG DATA_I:DATA:SORT:NOROOT(0)
Vt3:
        DS8 1
        REQUIRE `?<Initializer for Vt3>`

        RSEG DATA_I:DATA:SORT:NOROOT(0)
Vt4:
        DS8 1
        REQUIRE `?<Initializer for Vt4>`
//  284 
//  285 /*******************************************************************************
//  286  Get_TAB_8x11
//  287 *******************************************************************************/

        RSEG CODE:CODE:NOROOT(2)
        CFI Block cfiBlock0 Using cfiCommon0
        CFI Function Get_TAB_8x11
        THUMB
//  288 u16 Get_TAB_8x11(u8 Code, u8 Row)
//  289 {
//  290   return Char_TAB_8x11[((Code-0x22)*8)+Row];
Get_TAB_8x11:
        LDR.N    R2,??DataTable6  ;; 0xfffffffffffffde0
        ADDS     R0,R1,R0, LSL #+3
        LDR.N    R1,??DataTable7  ;; Char_TAB_8x11
        ADDS     R0,R1,R0, LSL #+1
        LDRH     R0,[R0, R2]
        BX       LR               ;; return
        CFI EndBlock cfiBlock0
//  291 }
//  292 /*******************************************************************************
//  293  Get_Ref_Wave: 
//  294 *******************************************************************************/

        RSEG CODE:CODE:NOROOT(2)
        CFI Block cfiBlock1 Using cfiCommon0
        CFI Function Get_Ref_Wave
        THUMB
//  295 u8 Get_Ref_Wave(u16 i)
//  296 {
//  297   return Ref_Wave[i];
Get_Ref_Wave:
        LDR.N    R1,??Get_Ref_Wave_0  ;; Ref_Wave
        LDRB     R0,[R1, R0]
        BX       LR               ;; return
        Nop      
        DATA
??Get_Ref_Wave_0:
        DC32     Ref_Wave
        CFI EndBlock cfiBlock1
//  298 }
//  299 /*******************************************************************************
//  300  Print_Clk: 进度指示
//  301 *******************************************************************************/

        RSEG CODE:CODE:NOROOT(2)
        CFI Block cfiBlock2 Using cfiCommon0
        CFI Function Print_Clk
        THUMB
//  302 void Print_Clk(u16 x0, u16 y0, u16 Type, u8 Phase)
//  303 {
Print_Clk:
        PUSH     {R4-R8,LR}
        CFI ?RET Frame(CFA, -4)
        CFI R8 Frame(CFA, -8)
        CFI R7 Frame(CFA, -12)
        CFI R6 Frame(CFA, -16)
        CFI R5 Frame(CFA, -20)
        CFI R4 Frame(CFA, -24)
        CFI CFA R13+24
        MOV      R8,R3
        MOVS     R4,R2
//  304   u16 i, j, b;
//  305   
//  306   __LCD_Set_Block(x0, x0+10, y0, y0+10);
        MOVS     R3,R1
        ADDS     R3,R3,#+10
        UXTH     R3,R3
        MOVS     R2,R1
        MOVS     R1,R0
        ADDS     R1,R1,#+10
        UXTH     R1,R1
        _BLF     __LCD_Set_Block,??__LCD_Set_Block??rT
//  307   for(i=0; i<11; ++i){
        MOVS     R5,#+0
//  308     b = CLK_TAB[Phase *11 + i];
??Print_Clk_0:
        MOV      R0,R8
        MOVS     R1,#+11
//  309     for(j=0; j<11; ++j){
        MOVS     R7,#+0
        MLA      R0,R0,R1,R5
        LDR.N    R1,??Print_Clk_1  ;; CLK_TAB
        LDRH     R6,[R1, R0, LSL #+1]
//  310       if((b >> j)& 0x001) __LCD_SetPixl(Color[Type >> 0x8]);
??Print_Clk_2:
        LDR.N    R0,??DataTable5  ;; Color
        MOVS     R2,R6
        ASRS     R2,R2,R7
        LSLS     R2,R2,#+31
        BPL.N    ??Print_Clk_3
        ASRS     R1,R4,#+8
        LDRH     R0,[R0, R1, LSL #+1]
        B.N      ??Print_Clk_4
//  311       else                __LCD_SetPixl(Color[Type & 0x0F]);
??Print_Clk_3:
        LSLS     R1,R4,#+28
        LSRS     R1,R1,#+28
        LDRH     R0,[R0, R1, LSL #+1]
??Print_Clk_4:
        _BLF     __LCD_SetPixl,??__LCD_SetPixl??rT
//  312     }
        ADDS     R7,R7,#+1
        UXTH     R7,R7
        CMP      R7,#+11
        BCC.N    ??Print_Clk_2
//  313   }
        ADDS     R5,R5,#+1
        UXTH     R5,R5
        CMP      R5,#+11
        BCC.N    ??Print_Clk_0
//  314   __LCD_Set_Block(LCD_X1,LCD_X2,LCD_Y1,LCD_Y2);  //恢复全尺寸窗口
        LDR.N    R1,??DataTable4  ;; 0x18f
        MOVS     R3,#+239
        MOVS     R2,#+0
        MOVS     R0,#+0
        _BLF     __LCD_Set_Block,??__LCD_Set_Block??rT
//  315 }
        POP      {R4-R8,PC}
        Nop      
        DATA
??Print_Clk_1:
        DC32     CLK_TAB
        CFI EndBlock cfiBlock2
//  316 /*******************************************************************************
//  317  Print_Str: 
//  318 *******************************************************************************/

        RSEG CODE:CODE:NOROOT(2)
        CFI Block cfiBlock3 Using cfiCommon0
        CFI Function Print_Str
        THUMB
//  319 void Print_Str(u16 x0, u16 y0, u16 Type, u8 Mode, u8 *s)
//  320 { 
Print_Str:
        PUSH     {R4-R11,LR}
        CFI ?RET Frame(CFA, -4)
        CFI R11 Frame(CFA, -8)
        CFI R10 Frame(CFA, -12)
        CFI R9 Frame(CFA, -16)
        CFI R8 Frame(CFA, -20)
        CFI R7 Frame(CFA, -24)
        CFI R6 Frame(CFA, -28)
        CFI R5 Frame(CFA, -32)
        CFI R4 Frame(CFA, -36)
        CFI CFA R13+36
        MOVS     R6,R2
//  321   signed short i, j, b; 
//  322   __LCD_Set_Block(x0, LCD_X2, y0, y0+10);
        LDR.N    R2,??DataTable4  ;; 0x18f
        MOV      R8,R3
        MOVS     R3,R1
        MOV      R9,R2
        ADDS     R3,R3,#+10
        UXTH     R3,R3
        MOVS     R2,R1
        MOV      R1,R9
        _BLF     __LCD_Set_Block,??__LCD_Set_Block??rT
//  323   for (j=0; j<11;++j){ 
        MOVS     R5,#+0
//  324     if(Mode == 0) __LCD_SetPixl(Color[Type & 0x0F]);   //Normal replace Display
??Print_Str_0:
        LDR.N    R0,??DataTable5  ;; Color
        LSLS     R1,R6,#+28
        LSRS     R1,R1,#+28
        ADDS     R11,R0,R1, LSL #+1
        ASRS     R1,R6,#+8
        ADDS     R4,R0,R1, LSL #+1
        MOV      R0,R8
        CBNZ     R0,??Print_Str_1
        LDRH     R0,[R11, #+0]
        B.N      ??Print_Str_2
//  325     else          __LCD_SetPixl(Color[Type >> 0x8]);   //Inverse replace Display
??Print_Str_1:
        LDRH     R0,[R4, #+0]
??Print_Str_2:
        _BLF     __LCD_SetPixl,??__LCD_SetPixl??rT
//  326   }
        ADDS     R5,R5,#+1
        CMP      R5,#+11
        BLT.N    ??Print_Str_0
//  327   x0++;                            // 每一个字符串前增加一空白列 
//  328   while (*s!=0) {
??Print_Str_3:
        LDR      R0,[SP, #+36]
        LDRB     R0,[R0, #+0]
        CMP      R0,#+0
        BEQ.N    ??Print_Str_4
//  329     for(i=0;i<8;++i){
        MOVS     R6,#+0
//  330       if((*s==0x20)||(*s==0x21)) b = 0x0000;
??Print_Str_5:
        LDR      R0,[SP, #+36]
        LDRB     R0,[R0, #+0]
        CMP      R0,#+32
        BEQ.N    ??Print_Str_6
        CMP      R0,#+33
        BNE.N    ??Print_Str_7
??Print_Str_6:
        MOVS     R7,#+0
//  331       else                       b = Get_TAB_8x11(*s, i);
//  332       if((*s==0x21)&&(i==4)) break;
        CMP      R0,#+33
        BNE.N    ??Print_Str_8
        CMP      R6,#+4
        BEQ.N    ??Print_Str_9
//  333       for(j=0;j<11;++j){
??Print_Str_8:
        MOVS     R5,#+0
//  334         if((b << j)& 0x400) {
??Print_Str_10:
        SXTH     R7,R7
        MOVS     R0,R7
        LSLS     R0,R0,R5
        LSLS     R0,R0,#+21
        MOV      R0,R8
        BPL.N    ??Print_Str_11
//  335           if(Mode == 0) __LCD_SetPixl(Color[Type >> 0x8]);
        CBNZ     R0,??Print_Str_12
        B.N      ??Print_Str_13
??Print_Str_7:
        LDR.N    R1,??DataTable6  ;; 0xfffffffffffffde0
        UXTB     R2,R6
        ADDS     R0,R2,R0, LSL #+3
        LDR.N    R2,??DataTable7  ;; Char_TAB_8x11
        ADDS     R0,R2,R0, LSL #+1
        LDRH     R7,[R0, R1]
        B.N      ??Print_Str_8
//  336           else          __LCD_SetPixl(Color[Type & 0x0F]);
??Print_Str_12:
        LDRH     R0,[R11, #+0]
        B.N      ??Print_Str_14
//  337         } else {
//  338           if(Mode == 0) __LCD_SetPixl(Color[Type & 0x0F]);
??Print_Str_11:
        CBNZ     R0,??Print_Str_13
        LDRH     R0,[R11, #+0]
        B.N      ??Print_Str_14
//  339           else          __LCD_SetPixl(Color[Type >> 0x8]);
??Print_Str_13:
        LDRH     R0,[R4, #+0]
??Print_Str_14:
        _BLF     __LCD_SetPixl,??__LCD_SetPixl??rT
//  340         }
//  341       }
        ADDS     R5,R5,#+1
        CMP      R5,#+11
        BLT.N    ??Print_Str_10
//  342     }
        ADDS     R6,R6,#+1
        SXTH     R6,R6
        CMP      R6,#+8
        BLT.N    ??Print_Str_5
//  343     if(*s==0x21) x0 +=4;           //显示位置水平方向+4
//  344     else  x0 += 8;                 //显示位置水平方向+8
//  345     ++s;                           //字符串指针+1
??Print_Str_9:
        LDR      R0,[SP, #+36]
        ADDS     R0,R0,#+1
        STR      R0,[SP, #+36]
        B.N      ??Print_Str_3
//  346   }
//  347   __LCD_Set_Block(LCD_X1,LCD_X2,LCD_Y1,LCD_Y2);  //恢复全尺寸窗口
??Print_Str_4:
        MOVS     R3,#+239
        MOVS     R2,#+0
        MOV      R1,R9
        _BLF     __LCD_Set_Block,??__LCD_Set_Block??rT
//  348 }
        POP      {R4-R11,PC}      ;; return
        CFI EndBlock cfiBlock3

        RSEG CODE:CODE:NOROOT(2)
        DATA
??DataTable4:
        DC32     0x18f

        RSEG CODE:CODE:NOROOT(2)
        DATA
??DataTable5:
        DC32     Color

        RSEG CODE:CODE:NOROOT(2)
        DATA
??DataTable6:
        DC32     0xfffffffffffffde0

        RSEG CODE:CODE:NOROOT(2)
        DATA
??DataTable7:
        DC32     Char_TAB_8x11
//  349 /*******************************************************************************
//  350  Draw_Row : 为缓解DMA冲突，分两个缓冲区交替工作
//  351 *******************************************************************************/

        RSEG CODE:CODE:NOROOT(2)
        CFI Block cfiBlock4 Using cfiCommon0
        CFI Function Draw_Row
        THUMB
//  352 void Draw_Row(u16 Row)
//  353 { 
Draw_Row:
        PUSH     {R4-R7,R9-R11,LR}
        CFI ?RET Frame(CFA, -4)
        CFI R11 Frame(CFA, -8)
        CFI R10 Frame(CFA, -12)
        CFI R9 Frame(CFA, -16)
        CFI R7 Frame(CFA, -20)
        CFI R6 Frame(CFA, -24)
        CFI R5 Frame(CFA, -28)
        CFI R4 Frame(CFA, -32)
        CFI CFA R13+32
        SUB      SP,SP,#+72
        CFI CFA R13+104
        MOVS     R6,R0
//  354   u8  i, y[8], Dot_Hide[8]; 
//  355   s16 Tmp, m, n ;
//  356   if((Row > MIN_X)&&(Row <= MAX_X)){               // 波形显示区数据预处理
        CMP      R6,#+12
        BCC.N    ??Draw_Row_0
        MOVS     R0,#+312
        CMP      R6,R0
        BCS.N    ??Draw_Row_0
//  357     m = (Row - MIN_X-1)* 4;
        MOVS     R0,R6
        SUBS     R0,R0,#+12
        LSLS     R0,R0,#+18
        ASRS     R0,R0,#+16
        MOV      R10,R0
//  358     n = (Row - MIN_X)  * 4;
        MOVS     R0,R6
        SUBS     R0,R0,#+11
        LSLS     R1,R0,#+2
        SXTH     R1,R1
//  359     for(i = 0; i < 8; i += 2) {
        MOVS     R0,#+0
//  360       Dot_Hide[i] = 0;
//  361       y[i]   = TrackBuff[m + i/2];                  // 端点提取
??Draw_Row_1:
        LDR.N    R5,??Draw_Row_2  ;; TrackBuff
        ADD      R2,SP,#+44
        ADDS     R2,R2,R0
        ASRS     R4,R0,#+1
        MOV      R7,R10
        ADDS     R7,R7,R4
        MOVS     R3,#+0
        STRB     R3,[R2, #+0]
        LDRB     R7,[R5, R7]
        ADD      R3,SP,#+24
        ADDS     R3,R3,R0
//  362       y[i+1] = TrackBuff[n + i/2];
        ADDS     R4,R1,R4
        STRB     R7,[R3, #+0]
        LDRB     R4,[R5, R4]
        STRB     R4,[R3, #+1]
//  363       
//  364       if(y[i]   >= Y_BASE+Y_SIZE)  y[i]   = Y_BASE+Y_SIZE-1;      // 超界处理
        MOVS     R4,#+199
        CMP      R7,#+200
        BCC.N    ??Draw_Row_3
        STRB     R4,[R3, #+0]
        B.N      ??Draw_Row_4
//  365       else if(y[i]   <= Y_BASE+1)  y[i]   = Y_BASE+1;   
??Draw_Row_3:
        CMP      R7,#+2
        ITT     CC 
        MOVCC    R5,#+1
        STRBCC   R5,[R3, #+0]
//  366       if(y[i+1] >= Y_BASE+Y_SIZE)  y[i+1] = Y_BASE+Y_SIZE-1;
??Draw_Row_4:
        LDRB     R5,[R3, #+1]
        CMP      R5,#+200
        BCC.N    ??Draw_Row_5
        STRB     R4,[R3, #+1]
        B.N      ??Draw_Row_6
//  367       else if(y[i+1] <= Y_BASE+1)  y[i+1] = Y_BASE+1;
??Draw_Row_5:
        CMP      R5,#+2
        ITT     CC 
        MOVCC    R4,#+1
        STRBCC   R4,[R3, #+1]
//  368       
//  369       if(y[i] == y[i+1]){
??Draw_Row_6:
        LDRB     R4,[R3, #+0]
        LDRB     R5,[R3, #+1]
        CMP      R4,R5
        BNE.N    ??Draw_Row_7
//  370         if((y[i] == Y_BASE+1)||(y[i] == Y_SIZE-1)) Dot_Hide[i] = 1;  // 超界消隐
        CMP      R4,#+1
        BEQ.N    ??Draw_Row_8
        CMP      R4,#+199
        BNE.N    ??Draw_Row_9
??Draw_Row_8:
        MOVS     R4,#+1
        STRB     R4,[R2, #+0]
        B.N      ??Draw_Row_7
//  371         else {
//  372           if(y[i] >= Y_BASE+2)           y[i]   -= 1;              // 水平线加粗
??Draw_Row_9:
        CMP      R4,#+2
        ITT     CS 
        SUBCS    R4,R4,#+1
        STRBCS   R4,[R3, #+0]
//  373           if(y[i+1] <= Y_BASE+Y_SIZE-2)  y[i+1] += 1;
        CMP      R5,#+199
        ITT     CC 
        ADDCC    R2,R5,#+1
        STRBCC   R2,[R3, #+1]
//  374         }
//  375       }
//  376       if(y[i] > y[i+1]){                                             // 大小排序
??Draw_Row_7:
        LDRB     R2,[R3, #+1]
        LDRB     R4,[R3, #+0]
        CMP      R2,R4
        ITT     CC 
//  377         Tmp = y[i+1]; y[i+1]= y[i]; y[i]= Tmp; 
        STRBCC   R4,[R3, #+1]
        STRBCC   R2,[R3, #+0]
//  378       }
//  379     }
        ADDS     R0,R0,#+2
        UXTB     R0,R0
        CMP      R0,#+8
        BCC.N    ??Draw_Row_1
//  380   } 
//  381   __Row_DMA_Ready();
//  382   __Point_SCR(Row, MIN_Y);
//  383   
//  384   if(Row & 1){                                       // Odd row process
??Draw_Row_0:
        LDR.N    R4,??Draw_Row_2+0x4  ;; LCD_Buffer1
        _BLF     __Row_DMA_Ready,??__Row_DMA_Ready??rT
        MOVS     R1,#+13
        MOVS     R0,R6
        _BLF     __Point_SCR,??__Point_SCR??rT
        LDR.N    R3,??Draw_Row_2+0x8  ;; Row_Base1
        LDRB     R0,[SP, #+30]
        ADDW     R10,R4,#+480
        MOVS     R5,R6
        STRB     R0,[SP, #+5]
        LDRB     R0,[SP, #+31]
        LDRB     R1,[SP, #+5]
        MOV      R9,R0
        SUBS     R0,R0,R1
        STR      R0,[SP, #+68]
        LDRB     R0,[SP, #+28]
        STRB     R0,[SP, #+4]
        LDRB     R0,[SP, #+29]
        STRB     R0,[SP, #+2]
        LDRB     R1,[SP, #+4]
        SUBS     R0,R0,R1
        STR      R0,[SP, #+64]
        LDRB     R0,[SP, #+26]
        STRB     R0,[SP, #+3]
        LDRB     R0,[SP, #+27]
        STRB     R0,[SP, #+1]
        LDRB     R1,[SP, #+3]
        SUBS     R0,R0,R1
        STR      R0,[SP, #+60]
        LDRB     R0,[SP, #+25]
        STRB     R0,[SP, #+0]
        LDRB     R1,[SP, #+24]
        SUBS     R0,R0,R1
        STR      R0,[SP, #+56]
        LDRB     R0,[SP, #+50]
        STRB     R0,[SP, #+7]
        LDRB     R0,[SP, #+48]
        STRB     R0,[SP, #+6]
        LDR.N    R0,??Draw_Row_2+0xC  ;; Title
        LDRB     R7,[SP, #+46]
        ADDW     R1,R0,#+816
        STR      R1,[SP, #+8]
        ADDW     R1,R0,#+456
        STR      R1,[SP, #+20]
        MOVS     R1,R0
        ADDS     R1,R1,#+176
        STR      R1,[SP, #+40]
        LDRB     R1,[SP, #+24]
        STR      R1,[SP, #+32]
        MOVS     R1,R0
        ADDS     R1,R1,#+16
        STR      R1,[SP, #+36]
        ADDW     R0,R0,#+656
        STR      R0,[SP, #+16]
        ADDW     R0,R3,#+404
        STR      R0,[SP, #+52]
        LDR.N    R0,??Draw_Row_2+0x10  ;; Color
        MOV      R11,R0
        LSLS     R0,R6,#+31
        BPL.W    ??Draw_Row_10
//  385 //----------------------- Fill the row base data -------------------------------
//  386     __Row_Copy(Row_Base2, LCD_Buffer1);
        LDR      R0,[SP, #+52]
        MOVS     R1,R4
        _BLF     __Row_Copy,??__Row_Copy??rT
//  387 //------------------------- Draw the Curve data --------------------------------
//  388     if((Row > MIN_X)&&(Row < MAX_X)){             
        CMP      R6,#+12
        BCC.W    ??Draw_Row_11
        LDR.N    R0,??Draw_Row_2+0x14  ;; 0x137
        CMP      R6,R0
        BCS.W    ??Draw_Row_12
//  389       if((Dot_Hide[0] == 0)&&(Title[TRACK1][SOURCE].Value != HIDE)){
        LDRH     R0,[R11, #+0]
        STRH     R0,[SP, #+12]
        LDRB     R0,[SP, #+44]
        CMP      R0,#+0
        BNE.N    ??Draw_Row_13
        LDR      R0,[SP, #+36]
        LDRSH    R0,[R0, #+0]
        CMP      R0,#+0
        BEQ.N    ??Draw_Row_13
//  390         if((y[1]-y[0])>5){
        LDR      R0,[SP, #+56]
        CMP      R0,#+6
        LDR      R0,[SP, #+32]
        BLT.N    ??Draw_Row_14
//  391           for(i=y[0]; i<=y[1]; ++i) LCD_Buffer2[i] |=Color[TR_1]-0x4200; // 低亮度
        LDRB     R1,[SP, #+0]
        UXTB     R2,R0
        CMP      R1,R2
        BCC.N    ??Draw_Row_13
??Draw_Row_15:
        LDRH     R3,[SP, #+12]
        UXTB     R1,R0
        ADDS     R0,R0,#+1
        ADDS     R1,R4,R1, LSL #+1
        ADDW     R1,R1,#+480
        LDRH     R2,[R1, #+0]
        ADDS     R3,R3,#+48640
        UXTB     R0,R0
        ORRS     R3,R3,R2
        STRH     R3,[R1, #+0]
        LDRB     R1,[SP, #+0]
        CMP      R1,R0
        BCC.N    ??Draw_Row_13
        B.N      ??Draw_Row_15
//  392         } else {
//  393           for(i=y[0]; i<=y[1]; ++i) LCD_Buffer2[i] |=Color[TR_1];        // 正常亮度
??Draw_Row_14:
        LDRB     R1,[SP, #+0]
        UXTB     R2,R0
        CMP      R1,R2
        BCC.N    ??Draw_Row_13
??Draw_Row_16:
        LDRH     R3,[SP, #+12]
        UXTB     R1,R0
        ADDS     R0,R0,#+1
        ADDS     R1,R4,R1, LSL #+1
        ADDW     R1,R1,#+480
        LDRH     R2,[R1, #+0]
        UXTB     R0,R0
        ORRS     R3,R3,R2
        STRH     R3,[R1, #+0]
        LDRB     R1,[SP, #+0]
        CMP      R1,R0
        BCS.N    ??Draw_Row_16
//  394         }
//  395       }
//  396       if((Dot_Hide[2] == 0)&&(Title[TRACK2][SOURCE].Value != HIDE)){
??Draw_Row_13:
        LDRH     R0,[R11, #+2]
        CMP      R7,#+0
        STRH     R0,[SP, #+14]
        BNE.N    ??Draw_Row_17
        LDR      R0,[SP, #+36]
        LDRSH    R0,[R0, #+80]
        CMP      R0,#+0
        BEQ.N    ??Draw_Row_17
//  397         if((y[3]-y[2])>5){
        LDR      R0,[SP, #+60]
        CMP      R0,#+6
        BLT.N    ??Draw_Row_18
//  398           for(i=y[2]; i<=y[3]; ++i) LCD_Buffer2[i] |=Color[TR_2]-0x0208; // 低亮度
        LDRB     R0,[SP, #+3]
        LDRB     R1,[SP, #+1]
        CMP      R1,R0
        BCC.N    ??Draw_Row_17
??Draw_Row_19:
        LDRH     R3,[SP, #+14]
        LDR.N    R6,??Draw_Row_2+0x18  ;; 0xfdf8
        ADDS     R1,R4,R0, LSL #+1
        ADDW     R1,R1,#+480
        LDRH     R2,[R1, #+0]
        ADDS     R3,R3,R6
        ADDS     R0,R0,#+1
        ORRS     R3,R3,R2
        STRH     R3,[R1, #+0]
        LDRB     R1,[SP, #+1]
        UXTB     R0,R0
        CMP      R1,R0
        BCC.N    ??Draw_Row_17
        B.N      ??Draw_Row_19
//  399         } else {   
//  400           for(i=y[2]; i<=y[3]; ++i) LCD_Buffer2[i] |=Color[TR_2];        // 正常亮度
??Draw_Row_18:
        LDRB     R0,[SP, #+3]
        LDRB     R1,[SP, #+1]
        CMP      R1,R0
        BCC.N    ??Draw_Row_17
??Draw_Row_20:
        LDRH     R3,[SP, #+14]
        ADDS     R1,R4,R0, LSL #+1
        ADDW     R1,R1,#+480
        LDRH     R2,[R1, #+0]
        ADDS     R0,R0,#+1
        UXTB     R0,R0
        ORRS     R3,R3,R2
        STRH     R3,[R1, #+0]
        LDRB     R1,[SP, #+1]
        CMP      R1,R0
        BCS.N    ??Draw_Row_20
//  401         }
//  402       }
//  403       if((Dot_Hide[4] == 0)&&(Title[TRACK3][SOURCE].Value != HIDE)){
??Draw_Row_17:
        LDRB     R0,[SP, #+6]
        LDRH     R1,[R11, #+4]
        CMP      R0,#+0
        BNE.N    ??Draw_Row_21
        LDR      R0,[SP, #+40]
        LDRSH    R0,[R0, #+0]
        CBZ      R0,??Draw_Row_21
//  404         if((y[5]-y[4])>5){
        LDR      R0,[SP, #+64]
        CMP      R0,#+6
        BLT.N    ??Draw_Row_22
//  405           for(i=y[4]; i<=y[5]; ++i) LCD_Buffer2[i] |=Color[TR_3]-0x4008; // 低亮度
        LDRB     R0,[SP, #+4]
        LDRB     R2,[SP, #+2]
        CMP      R2,R0
        BCC.N    ??Draw_Row_21
??Draw_Row_23:
        LDR.N    R6,??Draw_Row_2+0x1C  ;; 0xbff8
        ADDS     R2,R4,R0, LSL #+1
        ADDW     R2,R2,#+480
        LDRH     R3,[R2, #+0]
        ADDS     R6,R1,R6
        ADDS     R0,R0,#+1
        ORRS     R6,R6,R3
        STRH     R6,[R2, #+0]
        LDRB     R2,[SP, #+2]
        UXTB     R0,R0
        CMP      R2,R0
        BCC.N    ??Draw_Row_21
        B.N      ??Draw_Row_23
//  406         } else {
//  407           for(i=y[4]; i<=y[5]; ++i) LCD_Buffer2[i] |=Color[TR_3];        // 正常亮度
??Draw_Row_22:
        LDRB     R0,[SP, #+4]
        LDRB     R2,[SP, #+2]
        CMP      R2,R0
        BCC.N    ??Draw_Row_21
??Draw_Row_24:
        ADDS     R2,R4,R0, LSL #+1
        ADDW     R2,R2,#+480
        LDRH     R3,[R2, #+0]
        ADDS     R0,R0,#+1
        UXTB     R0,R0
        ORRS     R3,R3,R1
        STRH     R3,[R2, #+0]
        LDRB     R2,[SP, #+2]
        CMP      R2,R0
        BCS.N    ??Draw_Row_24
//  408         }
//  409       }
//  410       if((Dot_Hide[6] == 0)&&(Title[TRACK4][SOURCE].Value != HIDE)){
??Draw_Row_21:
        LDRH     R2,[R11, #+6]
        LDRB     R0,[SP, #+7]
        CBNZ     R0,??Draw_Row_25
        LDR      R0,[SP, #+40]
        LDRSH    R0,[R0, #+80]
        CBZ      R0,??Draw_Row_25
//  411         if((y[7]-y[6])>5){
        LDR      R0,[SP, #+68]
        CMP      R0,#+6
        BLT.N    ??Draw_Row_26
//  412           for(i=y[6]; i<=y[7]; ++i) LCD_Buffer2[i] |=Color[TR_4]-0x0200; // 低亮度
        LDRB     R0,[SP, #+5]
        CMP      R9,R0
        BCC.N    ??Draw_Row_25
??Draw_Row_27:
        ADDS     R3,R4,R0, LSL #+1
        ADDW     R3,R3,#+480
        LDRH     R6,[R3, #+0]
        ADDS     R7,R2,#+65024
        ADDS     R0,R0,#+1
        ORRS     R7,R7,R6
        STRH     R7,[R3, #+0]
        UXTB     R0,R0
        CMP      R9,R0
        BCC.N    ??Draw_Row_25
        B.N      ??Draw_Row_27
//  413         } else {
//  414           for(i=y[6]; i<=y[7]; ++i) LCD_Buffer2[i] |=Color[TR_4];        // 正常亮度
??Draw_Row_26:
        LDRB     R0,[SP, #+5]
        CMP      R9,R0
        BCC.N    ??Draw_Row_25
??Draw_Row_28:
        ADDS     R3,R4,R0, LSL #+1
        ADDW     R3,R3,#+480
        LDRH     R6,[R3, #+0]
        ADDS     R0,R0,#+1
        UXTB     R0,R0
        ORRS     R6,R6,R2
        STRH     R6,[R3, #+0]
        CMP      R9,R0
        BCS.N    ??Draw_Row_28
//  415         }
//  416       }
//  417 //------------------------- Draw the Trigg Vernie data -------------------------
//  418       if(Title[TRIGG][SOURCE].Value == TRACK1) 
??Draw_Row_25:
        LDR      R0,[SP, #+20]
        LDRSH    R0,[R0, #+120]
        CBNZ     R0,??Draw_Row_29
        LDRSH    R0,[R11, #+32]
        LDRH     R2,[SP, #+12]
        ADDS     R0,R4,R0, LSL #+1
        ADDW     R0,R0,#+480
        B.N      ??Draw_Row_30
//  419         LCD_Buffer2[V_Trigg[TRACK1].Value] |= Color[TR_1];
//  420       if(Title[TRIGG][SOURCE].Value == TRACK2) 
??Draw_Row_29:
        CMP      R0,#+1
        BNE.N    ??Draw_Row_31
        LDRSH    R0,[R11, #+36]
        LDRH     R2,[SP, #+14]
        ADDS     R0,R4,R0, LSL #+1
        ADDW     R0,R0,#+480
        B.N      ??Draw_Row_30
//  421         LCD_Buffer2[V_Trigg[TRACK2].Value] |= Color[TR_2];
//  422       if(Title[TRIGG][SOURCE].Value == TRACK3) 
??Draw_Row_31:
        CMP      R0,#+2
        BNE.N    ??Draw_Row_32
        LDRSH    R0,[R11, #+40]
        ADDS     R0,R4,R0, LSL #+1
        ADDW     R0,R0,#+480
        LDRH     R2,[R0, #+0]
        ORRS     R1,R1,R2
        STRH     R1,[R0, #+0]
        B.N      ??Draw_Row_33
        DATA
??Draw_Row_2:
        DC32     TrackBuff
        DC32     LCD_Buffer1
        DC32     Row_Base1
        DC32     Title
        DC32     Color
        DC32     0x137
        DC32     0xfdf8
        DC32     0xbff8
        THUMB
//  423         LCD_Buffer2[V_Trigg[TRACK3].Value] |= Color[TR_3];
//  424       if(Title[TRIGG][SOURCE].Value == TRACK4) 
??Draw_Row_32:
        CMP      R0,#+3
        BNE.N    ??Draw_Row_33
        LDRSH    R0,[R11, #+44]
        ADDS     R0,R4,R0, LSL #+1
        ADDW     R0,R0,#+480
??Draw_Row_30:
        LDRH     R1,[R0, #+0]
        ORRS     R2,R2,R1
        STRH     R2,[R0, #+0]
//  425         LCD_Buffer2[V_Trigg[TRACK4].Value] |= Color[TR_4];
//  426 //------------------------- Draw the X Vernie data -----------------------------
//  427       Tmp =(MIN_X + 150)- _X_posi.Value;
??Draw_Row_33:
        LDR      R1,[SP, #+20]
        MOVS     R0,#+161
        LDRSH    R1,[R1, #+0]
        SUBS     R2,R0,R1
        SXTH     R2,R2
//  428       if(Tmp > MIN_X) {
        ADDW     R1,R4,#+878
        CMP      R2,#+12
        BLT.N    ??Draw_Row_34
//  429         if((Row == Tmp)&&((_X_posi.Flag & HID)== 0)){
        LDRH     R3,[R11, #+12]
        CMP      R5,R2
        BNE.N    ??Draw_Row_35
        LDR      R0,[SP, #+20]
        LDRB     R0,[R0, #+2]
        LSLS     R0,R0,#+29
        BMI.N    ??Draw_Row_35
//  430           for(i = 1; i < Y_SIZE; i+=3) LCD_Buffer2[i] |= Color[X_POSI];
        MOVS     R0,#+1
??Draw_Row_36:
        ADDS     R6,R4,R0, LSL #+1
        ADDW     R6,R6,#+480
        LDRH     R7,[R6, #+0]
        ADDS     R0,R0,#+3
        UXTB     R0,R0
        ORRS     R7,R7,R3
        STRH     R7,[R6, #+0]
        CMP      R0,#+200
        BCC.N    ??Draw_Row_36
//  431         }
//  432         if((Row == Tmp-1)||(Row == Tmp+1)){
??Draw_Row_35:
        SUBS     R0,R2,#+1
        CMP      R5,R0
        BEQ.N    ??Draw_Row_37
        ADDS     R0,R2,#+1
        CMP      R5,R0
        BNE.N    ??Draw_Row_38
//  433           LCD_Buffer2[Y_SIZE] = Color[X_POSI];
??Draw_Row_37:
        STRH     R3,[R1, #+2]
//  434           LCD_Buffer2[Y_BASE] = Color[X_POSI];
        STRH     R3,[R10, #+0]
//  435         }
//  436         if(Row == Tmp){
??Draw_Row_38:
        CMP      R5,R2
        BNE.N    ??Draw_Row_34
//  437           LCD_Buffer2[Y_SIZE]   = Color[X_POSI];
        STRH     R3,[R1, #+2]
//  438           LCD_Buffer2[Y_SIZE-1] = Color[X_POSI];
        STRH     R3,[R1, #+0]
//  439           LCD_Buffer2[Y_BASE+1] = Color[X_POSI];
        STRH     R3,[R10, #+2]
//  440           LCD_Buffer2[Y_BASE]   = Color[X_POSI];
        STRH     R3,[R10, #+0]
//  441         }
//  442       }
//  443       Tmp = MIN_X + Title[T_VERNIE][T1].Value;
??Draw_Row_34:
        LDR      R0,[SP, #+8]
//  444       if((Row == Tmp)&&((Title[T_VERNIE][T1].Flag & HID)== 0)){
        LDRH     R3,[R11, #+8]
        LDRSH    R2,[R0, #+0]
        ADDS     R2,R2,#+11
        SXTH     R2,R2
        CMP      R5,R2
        BNE.N    ??Draw_Row_39
        LDRB     R0,[R0, #+2]
        LSLS     R0,R0,#+29
        BMI.N    ??Draw_Row_39
//  445         for(i = 1; i < Y_SIZE; i+=3) LCD_Buffer2[i] |= Color[VERNIE];
        MOVS     R0,#+1
??Draw_Row_40:
        ADDS     R6,R4,R0, LSL #+1
        ADDW     R6,R6,#+480
        LDRH     R7,[R6, #+0]
        ADDS     R0,R0,#+3
        UXTB     R0,R0
        ORRS     R7,R7,R3
        STRH     R7,[R6, #+0]
        CMP      R0,#+200
        BCC.N    ??Draw_Row_40
//  446       }
//  447       if((Row == Tmp-1)||(Row == Tmp+1)){
??Draw_Row_39:
        SUBS     R0,R2,#+1
        CMP      R5,R0
        BEQ.N    ??Draw_Row_41
        ADDS     R0,R2,#+1
        CMP      R5,R0
        BNE.N    ??Draw_Row_42
//  448         LCD_Buffer2[Y_SIZE] |= Color[VERNIE];
??Draw_Row_41:
        LDRH     R0,[R1, #+2]
        ORRS     R0,R0,R3
        STRH     R0,[R1, #+2]
//  449         LCD_Buffer2[Y_BASE] |= Color[VERNIE];
        LDRH     R0,[R10, #+0]
        ORRS     R0,R0,R3
        STRH     R0,[R10, #+0]
//  450       }
//  451       if(Row == Tmp){
??Draw_Row_42:
        CMP      R5,R2
        BNE.N    ??Draw_Row_43
//  452         LCD_Buffer2[Y_SIZE]   |= Color[VERNIE];
        LDRH     R0,[R1, #+2]
        ORRS     R0,R0,R3
        STRH     R0,[R1, #+2]
//  453         LCD_Buffer2[Y_SIZE-1] |= Color[VERNIE];
        LDRH     R0,[R1, #+0]
        ORRS     R0,R0,R3
        STRH     R0,[R1, #+0]
//  454         LCD_Buffer2[Y_BASE+1] |= Color[VERNIE];
        LDRH     R0,[R10, #+2]
        ORRS     R0,R0,R3
        STRH     R0,[R10, #+2]
//  455         LCD_Buffer2[Y_BASE]   |= Color[VERNIE];
        LDRH     R0,[R10, #+0]
        ORRS     R0,R0,R3
        STRH     R0,[R10, #+0]
//  456       }
//  457       Tmp = MIN_X + Title[T_VERNIE][T2].Value;
??Draw_Row_43:
        LDR      R0,[SP, #+8]
        LDRSH    R2,[R0, #+20]
        ADDS     R2,R2,#+11
        SXTH     R2,R2
//  458       if((Row == Tmp)&&((Title[T_VERNIE][T2].Flag & HID)== 0)){
        CMP      R5,R2
        BNE.N    ??Draw_Row_44
        LDRB     R0,[R0, #+22]
        LSLS     R0,R0,#+29
        BMI.N    ??Draw_Row_44
//  459         for(i = 1; i < Y_SIZE; i+=3) LCD_Buffer2[i] |= Color[VERNIE];
        MOVS     R0,#+1
??Draw_Row_45:
        ADDS     R6,R4,R0, LSL #+1
        ADDW     R6,R6,#+480
        LDRH     R7,[R6, #+0]
        ADDS     R0,R0,#+3
        UXTB     R0,R0
        ORRS     R7,R7,R3
        STRH     R7,[R6, #+0]
        CMP      R0,#+200
        BCC.N    ??Draw_Row_45
//  460       }
//  461       if((Row == Tmp-1)||(Row == Tmp+1)){
??Draw_Row_44:
        SUBS     R0,R2,#+1
        CMP      R5,R0
        BEQ.N    ??Draw_Row_46
        ADDS     R0,R2,#+1
        CMP      R5,R0
        BNE.N    ??Draw_Row_47
//  462         LCD_Buffer2[Y_SIZE] = Color[VERNIE];
??Draw_Row_46:
        STRH     R3,[R1, #+2]
//  463         LCD_Buffer2[Y_BASE] = Color[VERNIE];
        STRH     R3,[R10, #+0]
//  464       }
//  465       if(Row == Tmp){
??Draw_Row_47:
        CMP      R5,R2
        BNE.N    ??Draw_Row_48
//  466         LCD_Buffer2[Y_SIZE]   = Color[VERNIE];
        STRH     R3,[R1, #+2]
//  467         LCD_Buffer2[Y_SIZE-1] = Color[VERNIE];
        STRH     R3,[R1, #+0]
//  468         LCD_Buffer2[Y_BASE+1] = Color[VERNIE];
        STRH     R3,[R10, #+2]
        B.N      ??Draw_Row_48
//  469       }
//  470     } 
//  471 //------------------------- Draw the Y Vernie data -----------------------------
//  472       if((Row == MIN_X)||(Row == MAX_X)){
??Draw_Row_11:
        CMP      R6,#+11
        BNE.N    ??Draw_Row_48
        B.N      ??Draw_Row_49
??Draw_Row_12:
        BNE.N    ??Draw_Row_48
??Draw_Row_49:
        LDR      R0,[SP, #+16]
        LDRH     R3,[R11, #+8]
        LDRSH    R0,[R0, #+0]
        ADDS     R0,R4,R0, LSL #+1
        ADDS     R0,R0,#+478
        LDRH     R1,[R0, #+0]
        ORRS     R1,R1,R3
        STRH     R1,[R0, #+0]
//  473         LCD_Buffer2[Title[V_VERNIE][V1].Value-1] |= Color[VERNIE];
//  474         LCD_Buffer2[Title[V_VERNIE][V1].Value+0] |= Color[VERNIE];
        LDRH     R1,[R0, #+2]
        ORRS     R1,R1,R3
        STRH     R1,[R0, #+2]
//  475         LCD_Buffer2[Title[V_VERNIE][V1].Value+1] |= Color[VERNIE];
        LDRH     R1,[R0, #+4]
        ORRS     R1,R1,R3
        STRH     R1,[R0, #+4]
        LDR      R0,[SP, #+16]
        LDRSH    R0,[R0, #+20]
        ADDS     R0,R4,R0, LSL #+1
        ADDS     R0,R0,#+478
        LDRH     R1,[R0, #+0]
        ORRS     R1,R1,R3
        STRH     R1,[R0, #+0]
//  476         LCD_Buffer2[Title[V_VERNIE][V2].Value-1] |= Color[VERNIE];
//  477         LCD_Buffer2[Title[V_VERNIE][V2].Value+0] |= Color[VERNIE];
        LDRH     R1,[R0, #+2]
        ORRS     R1,R1,R3
        STRH     R1,[R0, #+2]
//  478         LCD_Buffer2[Title[V_VERNIE][V2].Value+1] |= Color[VERNIE];
        LDRH     R1,[R0, #+4]
        ORRS     R3,R3,R1
        STRH     R3,[R0, #+4]
//  479       }
//  480     __LCD_Copy(LCD_Buffer2, Y_SIZE+1);               // Odd row Transitive
??Draw_Row_48:
        MOVS     R1,#+201
        MOV      R0,R10
        B.N      ??Draw_Row_50
//  481   } else {                                           // Even row process
//  482 //----------------------- Fill the row base data -------------------------------
//  483     if(Row+1 == MAX_X)                   __Row_Copy(Row_Base1, LCD_Buffer2);
??Draw_Row_10:
        LDR.N    R1,??Draw_Row_51  ;; 0x137
        ADDS     R0,R5,#+1
        CMP      R0,R1
        BNE.N    ??Draw_Row_52
        MOV      R1,R10
        MOVS     R0,R3
        B.N      ??Draw_Row_53
//  484     else if(Row+1 == MIN_X)              ;
??Draw_Row_52:
        CMP      R0,#+11
        BEQ.N    ??Draw_Row_54
//  485     else if((Row+1 - MIN_X)%30 == 0)     __Row_Copy(Row_Base4, LCD_Buffer2);
        MOVS     R2,R5
        SUBS     R2,R2,#+10
        MOVS     R0,R2
        MOVS     R1,#+30
        _BLF     ??div32_t,??rT??div32_t
        CBNZ     R0,??Draw_Row_55
        MOV      R1,R10
        ADDW     R0,R3,#+1212
        B.N      ??Draw_Row_53
//  486     else if((Row+1 - MIN_X)%6  == 0)     __Row_Copy(Row_Base3, LCD_Buffer2);
??Draw_Row_55:
        MOVS     R0,R2
        MOVS     R1,#+6
        _BLF     ??div32_t,??rT??div32_t
        CMP      R0,#+0
        MOV      R1,R10
        BNE.N    ??Draw_Row_56
        ADDW     R0,R3,#+808
        B.N      ??Draw_Row_53
//  487     else                                 __Row_Copy(Row_Base2, LCD_Buffer2);
??Draw_Row_56:
        LDR      R0,[SP, #+52]
??Draw_Row_53:
        _BLF     __Row_Copy,??__Row_Copy??rT
??Draw_Row_54:
        LDR      R0,[SP, #+16]
        LDR      R1,[SP, #+16]
        LDRSH    R0,[R0, #+20]
        LDRSH    R1,[R1, #+0]
        ADDS     R0,R4,R0, LSL #+1
        ADDS     R2,R4,R1, LSL #+1
        LDRH     R1,[R11, #+8]
        CMP      R6,#+12
        BEQ.N    ??Draw_Row_57
        MOVS     R3,#+310
        CMP      R6,R3
        BNE.N    ??Draw_Row_58
//  488 //------------------------- Draw the Y Vernie data -----------------------------
//  489     if((Row==MIN_X+1)||(Row==MAX_X-1)){
//  490         LCD_Buffer1[Title[V_VERNIE][V1].Value] |= Color[VERNIE];
??Draw_Row_57:
        LDRH     R3,[R2, #+0]
        ORRS     R3,R3,R1
        STRH     R3,[R2, #+0]
//  491         LCD_Buffer1[Title[V_VERNIE][V2].Value] |= Color[VERNIE];
        LDRH     R3,[R0, #+0]
        ORRS     R3,R3,R1
        STRH     R3,[R0, #+0]
//  492     }
//  493       if((Title[V_VERNIE][V1].Flag & HID)== 0) 
??Draw_Row_58:
        LDR      R3,[SP, #+16]
        LDRB     R3,[R3, #+2]
        LSLS     R3,R3,#+29
        ITTT    PL 
//  494         LCD_Buffer1[Title[V_VERNIE][V1].Value] |= Color[VERNIE];
        LDRHPL   R3,[R2, #+0]
        ORRPL    R3,R3,R1
        STRHPL   R3,[R2, #+0]
//  495       if((Title[V_VERNIE][V2].Flag & HID)== 0) 
        LDR      R2,[SP, #+16]
        LDRB     R2,[R2, #+22]
        LSLS     R2,R2,#+29
        ITTT    PL 
//  496         LCD_Buffer1[Title[V_VERNIE][V2].Value] |= Color[VERNIE];
        LDRHPL   R2,[R0, #+0]
        ORRPL    R2,R2,R1
        STRHPL   R2,[R0, #+0]
//  497 //------------------------- Draw the Curve data --------------------------------
//  498     if((Row > MIN_X)&&(Row < MAX_X)){              
        CMP      R6,#+12
        BCC.W    ??Draw_Row_59
        LDR.N    R0,??Draw_Row_51  ;; 0x137
        CMP      R6,R0
        BCS.W    ??Draw_Row_59
//  499       if((Dot_Hide[0] == 0)&&(Title[TRACK1][SOURCE].Value != HIDE)){
        LDRB     R0,[SP, #+44]
        CMP      R0,#+0
        BNE.N    ??Draw_Row_60
        LDR      R0,[SP, #+36]
        LDRSH    R0,[R0, #+0]
        CMP      R0,#+0
        BEQ.N    ??Draw_Row_60
//  500         if((y[1]-y[0])>5){
        LDR      R0,[SP, #+56]
        LDRH     R10,[R11, #+0]
        CMP      R0,#+6
        LDR      R0,[SP, #+32]
        BLT.N    ??Draw_Row_61
//  501           for(i=y[0]; i<=y[1]; ++i) LCD_Buffer1[i] |=Color[TR_1]-0x4200; // 低亮度
        LDRB     R2,[SP, #+0]
        UXTB     R3,R0
        CMP      R2,R3
        BCC.N    ??Draw_Row_60
??Draw_Row_62:
        UXTB     R2,R0
        ADDS     R6,R10,#+48640
        ADDS     R2,R4,R2, LSL #+1
        LDRH     R3,[R2, #+0]
        ADDS     R0,R0,#+1
        UXTB     R0,R0
        ORRS     R6,R6,R3
        STRH     R6,[R2, #+0]
        LDRB     R2,[SP, #+0]
        CMP      R2,R0
        BCC.N    ??Draw_Row_60
        B.N      ??Draw_Row_62
//  502         } else {
//  503           for(i=y[0]; i<=y[1]; ++i) LCD_Buffer1[i] |=Color[TR_1];        // 正常亮度
??Draw_Row_61:
        LDRB     R2,[SP, #+0]
        UXTB     R3,R0
        CMP      R2,R3
        BCC.N    ??Draw_Row_60
??Draw_Row_63:
        UXTB     R2,R0
        ADDS     R0,R0,#+1
        ADDS     R2,R4,R2, LSL #+1
        LDRH     R3,[R2, #+0]
        UXTB     R0,R0
        ORRS     R3,R10,R3
        STRH     R3,[R2, #+0]
        LDRB     R2,[SP, #+0]
        CMP      R2,R0
        BCS.N    ??Draw_Row_63
//  504         }
//  505       }
//  506       if((Dot_Hide[2] == 0)&&(Title[TRACK2][SOURCE].Value != HIDE)){
??Draw_Row_60:
        CMP      R7,#+0
        BNE.N    ??Draw_Row_64
        LDR      R0,[SP, #+36]
        LDRSH    R0,[R0, #+80]
        CBZ      R0,??Draw_Row_64
//  507         if((y[3]-y[2])>5){
        LDR      R0,[SP, #+60]
        LDRH     R2,[R11, #+2]
        CMP      R0,#+6
        BLT.N    ??Draw_Row_65
//  508           for(i=y[2]; i<=y[3]; ++i) LCD_Buffer1[i] |=Color[TR_2]-0x0208; // 低亮度
        LDRB     R0,[SP, #+3]
        LDRB     R3,[SP, #+1]
        CMP      R3,R0
        BCC.N    ??Draw_Row_64
??Draw_Row_66:
        LDR.N    R7,??Draw_Row_51+0x4  ;; 0xfdf8
        ADDS     R3,R4,R0, LSL #+1
        LDRH     R6,[R3, #+0]
        ADDS     R7,R2,R7
        ADDS     R0,R0,#+1
        ORRS     R7,R7,R6
        STRH     R7,[R3, #+0]
        LDRB     R3,[SP, #+1]
        UXTB     R0,R0
        CMP      R3,R0
        BCC.N    ??Draw_Row_64
        B.N      ??Draw_Row_66
//  509         } else {   
//  510           for(i=y[2]; i<=y[3]; ++i) LCD_Buffer1[i] |=Color[TR_2];        // 正常亮度
??Draw_Row_65:
        LDRB     R0,[SP, #+3]
        LDRB     R3,[SP, #+1]
        CMP      R3,R0
        BCC.N    ??Draw_Row_64
??Draw_Row_67:
        ADDS     R3,R4,R0, LSL #+1
        LDRH     R6,[R3, #+0]
        ADDS     R0,R0,#+1
        UXTB     R0,R0
        ORRS     R6,R6,R2
        STRH     R6,[R3, #+0]
        LDRB     R3,[SP, #+1]
        CMP      R3,R0
        BCS.N    ??Draw_Row_67
//  511         }
//  512       }
//  513       if((Dot_Hide[4] == 0)&&(Title[TRACK3][SOURCE].Value != HIDE)){
??Draw_Row_64:
        LDRB     R0,[SP, #+6]
        CMP      R0,#+0
        BNE.N    ??Draw_Row_68
        LDR      R0,[SP, #+40]
        LDRSH    R0,[R0, #+0]
        CBZ      R0,??Draw_Row_68
//  514         if((y[5]-y[4])>5){
        LDR      R0,[SP, #+64]
        LDRH     R2,[R11, #+4]
        CMP      R0,#+6
        BLT.N    ??Draw_Row_69
//  515           for(i=y[4]; i<=y[5]; ++i) LCD_Buffer1[i] |=Color[TR_3]-0x4008; // 低亮度
        LDRB     R0,[SP, #+4]
        LDRB     R3,[SP, #+2]
        CMP      R3,R0
        BCC.N    ??Draw_Row_68
??Draw_Row_70:
        LDR.N    R7,??Draw_Row_51+0x8  ;; 0xbff8
        ADDS     R3,R4,R0, LSL #+1
        LDRH     R6,[R3, #+0]
        ADDS     R7,R2,R7
        ADDS     R0,R0,#+1
        ORRS     R7,R7,R6
        STRH     R7,[R3, #+0]
        LDRB     R3,[SP, #+2]
        UXTB     R0,R0
        CMP      R3,R0
        BCC.N    ??Draw_Row_68
        B.N      ??Draw_Row_70
//  516         } else {
//  517           for(i=y[4]; i<=y[5]; ++i) LCD_Buffer1[i] |=Color[TR_3];        // 正常亮度
??Draw_Row_69:
        LDRB     R0,[SP, #+4]
        LDRB     R3,[SP, #+2]
        CMP      R3,R0
        BCC.N    ??Draw_Row_68
??Draw_Row_71:
        ADDS     R3,R4,R0, LSL #+1
        LDRH     R6,[R3, #+0]
        ADDS     R0,R0,#+1
        UXTB     R0,R0
        ORRS     R6,R6,R2
        STRH     R6,[R3, #+0]
        LDRB     R3,[SP, #+2]
        CMP      R3,R0
        BCS.N    ??Draw_Row_71
//  518         }
//  519       }
//  520       if((Dot_Hide[6] == 0)&&(Title[TRACK4][SOURCE].Value != HIDE)){
??Draw_Row_68:
        LDRB     R0,[SP, #+7]
        CBNZ     R0,??Draw_Row_72
        LDR      R0,[SP, #+40]
        LDRSH    R0,[R0, #+80]
        CBZ      R0,??Draw_Row_72
//  521         if((y[7]-y[6])>5){
        LDR      R0,[SP, #+68]
        LDRH     R2,[R11, #+6]
        CMP      R0,#+6
        BLT.N    ??Draw_Row_73
//  522           for(i=y[6]; i<=y[7]; ++i) LCD_Buffer1[i] |=Color[TR_4]-0x0200; // 低亮度
        LDRB     R0,[SP, #+5]
        CMP      R9,R0
        BCC.N    ??Draw_Row_72
??Draw_Row_74:
        ADDS     R3,R4,R0, LSL #+1
        LDRH     R6,[R3, #+0]
        ADDS     R7,R2,#+65024
        ADDS     R0,R0,#+1
        ORRS     R7,R7,R6
        STRH     R7,[R3, #+0]
        UXTB     R0,R0
        CMP      R9,R0
        BCC.N    ??Draw_Row_72
        B.N      ??Draw_Row_74
//  523         } else {
//  524           for(i=y[6]; i<=y[7]; ++i) LCD_Buffer1[i] |=Color[TR_4];        // 正常亮度
??Draw_Row_73:
        LDRB     R0,[SP, #+5]
        CMP      R9,R0
        BCC.N    ??Draw_Row_72
??Draw_Row_75:
        ADDS     R3,R4,R0, LSL #+1
        LDRH     R6,[R3, #+0]
        ADDS     R0,R0,#+1
        UXTB     R0,R0
        ORRS     R6,R6,R2
        STRH     R6,[R3, #+0]
        CMP      R9,R0
        BCS.N    ??Draw_Row_75
//  525         }
//  526       }
//  527 //------------------------- Draw the X Vernie data -----------------------------
//  528       Tmp =(MIN_X + 150)- _X_posi.Value;
??Draw_Row_72:
        LDR      R2,[SP, #+20]
        MOVS     R0,#+161
//  529       if(Tmp > MIN_X) {
        ADDS     R3,R4,#+398
        LDRSH    R2,[R2, #+0]
        SUBS     R2,R0,R2
        SXTH     R2,R2
        CMP      R2,#+12
        BLT.N    ??Draw_Row_76
//  530         if((Row == Tmp)&&((_X_posi.Flag & HID)== 0)){
        LDRH     R6,[R11, #+12]
        CMP      R5,R2
        BNE.N    ??Draw_Row_77
        LDR      R0,[SP, #+20]
        LDRB     R0,[R0, #+2]
        LSLS     R0,R0,#+29
        BMI.N    ??Draw_Row_77
//  531           for(i = 1; i < Y_SIZE; i+=3) LCD_Buffer1[i] |= Color[X_POSI];
        MOVS     R0,#+1
??Draw_Row_78:
        ADDS     R9,R4,R0, LSL #+1
        LDRH     R7,[R9, #+0]
        ADDS     R0,R0,#+3
        UXTB     R0,R0
        ORRS     R7,R7,R6
        STRH     R7,[R9, #+0]
        CMP      R0,#+200
        BCC.N    ??Draw_Row_78
//  532         }
//  533         if((Row == Tmp-1)||(Row == Tmp+1)){
??Draw_Row_77:
        SUBS     R0,R2,#+1
        CMP      R5,R0
        BEQ.N    ??Draw_Row_79
        ADDS     R0,R2,#+1
        CMP      R5,R0
        BNE.N    ??Draw_Row_80
//  534           LCD_Buffer1[Y_SIZE] = Color[X_POSI];
??Draw_Row_79:
        STRH     R6,[R3, #+2]
//  535           LCD_Buffer1[Y_BASE] = Color[X_POSI];
        STRH     R6,[R4, #+0]
//  536         }
//  537         if(Row == Tmp){
??Draw_Row_80:
        CMP      R5,R2
        BNE.N    ??Draw_Row_76
//  538           LCD_Buffer1[Y_SIZE]   = Color[X_POSI];
        STRH     R6,[R3, #+2]
//  539           LCD_Buffer1[Y_SIZE-1] = Color[X_POSI];
        STRH     R6,[R3, #+0]
//  540           LCD_Buffer1[Y_BASE+1] = Color[X_POSI];
        STRH     R6,[R4, #+2]
//  541           LCD_Buffer1[Y_BASE]   = Color[X_POSI];
        STRH     R6,[R4, #+0]
//  542         }
//  543       }
//  544       Tmp = MIN_X + Title[T_VERNIE][T1].Value;
??Draw_Row_76:
        LDR      R0,[SP, #+8]
        LDRSH    R2,[R0, #+0]
        ADDS     R2,R2,#+11
        SXTH     R2,R2
//  545       if((Row == Tmp)&&((Title[T_VERNIE][T1].Flag & HID)== 0)){
        CMP      R5,R2
        BNE.N    ??Draw_Row_81
        LDRB     R0,[R0, #+2]
        LSLS     R0,R0,#+29
        BMI.N    ??Draw_Row_81
//  546         for(i = 1; i < Y_SIZE; i+=3) LCD_Buffer1[i] |= Color[VERNIE];
        MOVS     R0,#+1
??Draw_Row_82:
        ADDS     R6,R4,R0, LSL #+1
        LDRH     R7,[R6, #+0]
        ADDS     R0,R0,#+3
        UXTB     R0,R0
        ORRS     R7,R7,R1
        STRH     R7,[R6, #+0]
        CMP      R0,#+200
        BCC.N    ??Draw_Row_82
//  547       }
//  548       if((Row == Tmp-1)||(Row == Tmp+1)){
??Draw_Row_81:
        SUBS     R0,R2,#+1
        CMP      R5,R0
        BEQ.N    ??Draw_Row_83
        ADDS     R0,R2,#+1
        CMP      R5,R0
        BNE.N    ??Draw_Row_84
//  549         LCD_Buffer1[Y_SIZE] = Color[VERNIE];
??Draw_Row_83:
        STRH     R1,[R3, #+2]
//  550         LCD_Buffer1[Y_BASE] = Color[VERNIE];
        STRH     R1,[R4, #+0]
//  551       }
//  552       if(Row == Tmp){
??Draw_Row_84:
        CMP      R5,R2
        ITTT    EQ 
//  553         LCD_Buffer1[Y_SIZE]   = Color[VERNIE];
        STRHEQ   R1,[R3, #+2]
//  554         LCD_Buffer1[Y_SIZE-1] = Color[VERNIE];
        STRHEQ   R1,[R3, #+0]
//  555         LCD_Buffer1[Y_BASE+1] = Color[VERNIE];
        STRHEQ   R1,[R4, #+2]
//  556       }
//  557       Tmp = MIN_X + Title[T_VERNIE][T2].Value;
        LDR      R0,[SP, #+8]
        LDRSH    R2,[R0, #+20]
        ADDS     R2,R2,#+11
        SXTH     R2,R2
//  558       if((Row == Tmp)&&((Title[T_VERNIE][T2].Flag & HID)== 0)){
        CMP      R5,R2
        BNE.N    ??Draw_Row_85
        LDRB     R0,[R0, #+22]
        LSLS     R0,R0,#+29
        BMI.N    ??Draw_Row_85
//  559         for(i = 1; i < Y_SIZE; i+=3) LCD_Buffer1[i] |= Color[VERNIE];
        MOVS     R0,#+1
??Draw_Row_86:
        ADDS     R6,R4,R0, LSL #+1
        LDRH     R7,[R6, #+0]
        ADDS     R0,R0,#+3
        UXTB     R0,R0
        ORRS     R7,R7,R1
        STRH     R7,[R6, #+0]
        CMP      R0,#+200
        BCC.N    ??Draw_Row_86
//  560       }
//  561       if((Row == Tmp-1)||(Row == Tmp+1)){
??Draw_Row_85:
        SUBS     R0,R2,#+1
        CMP      R5,R0
        BEQ.N    ??Draw_Row_87
        ADDS     R0,R2,#+1
        CMP      R5,R0
        BNE.N    ??Draw_Row_88
//  562         LCD_Buffer1[Y_SIZE] = Color[VERNIE];
??Draw_Row_87:
        STRH     R1,[R3, #+2]
//  563         LCD_Buffer1[Y_BASE] = Color[VERNIE];
        STRH     R1,[R4, #+0]
//  564       }
//  565       if(Row == Tmp){
??Draw_Row_88:
        CMP      R5,R2
        ITTT    EQ 
//  566         LCD_Buffer1[Y_SIZE]   = Color[VERNIE];
        STRHEQ   R1,[R3, #+2]
//  567         LCD_Buffer1[Y_SIZE-1] = Color[VERNIE];
        STRHEQ   R1,[R3, #+0]
//  568         LCD_Buffer1[Y_BASE+1] = Color[VERNIE];
        STRHEQ   R1,[R4, #+2]
//  569       }
//  570     }
//  571     __LCD_Copy(LCD_Buffer1, Y_SIZE+1);             // Even row Transitive
??Draw_Row_59:
        MOVS     R1,#+201
        MOVS     R0,R4
??Draw_Row_50:
        _BLF     __LCD_Copy,??__LCD_Copy??rT
//  572   }
//  573 }
        ADD      SP,SP,#+72
        CFI CFA R13+32
        POP      {R4-R7,R9-R11,PC}
        DATA
??Draw_Row_51:
        DC32     0x137
        DC32     0xfdf8
        DC32     0xbff8
        CFI EndBlock cfiBlock4
//  574 /*******************************************************************************
//  575  Draw_Window :  
//  576 *******************************************************************************/

        RSEG CODE:CODE:NOROOT(2)
        CFI Block cfiBlock5 Using cfiCommon0
        CFI Function Draw_Window
        THUMB
//  577 void Draw_Window(void)						
//  578 { 
Draw_Window:
        PUSH     {R4,R5,LR}
        CFI ?RET Frame(CFA, -4)
        CFI R5 Frame(CFA, -8)
        CFI R4 Frame(CFA, -12)
        CFI CFA R13+12
//  579   u16 Row;
//  580   __Row_DMA_Ready();
//  581   __Row_Copy(Row_Base1, LCD_Buffer2);
        LDR.N    R4,??DataTable8  ;; Row_Base1
        LDR.N    R5,??DataTable9  ;; LCD_Buffer1
        _BLF     __Row_DMA_Ready,??__Row_DMA_Ready??rT
        ADDW     R1,R5,#+480
        MOVS     R0,R4
        _BLF     __Row_Copy,??__Row_Copy??rT
//  582   __Row_DMA_Ready();
        _BLF     __Row_DMA_Ready,??__Row_DMA_Ready??rT
//  583   __Row_Copy(Row_Base2, LCD_Buffer1);
        MOVS     R1,R5
        ADDW     R0,R4,#+404
        _BLF     __Row_Copy,??__Row_Copy??rT
//  584   for(Row = MIN_X; Row <= MAX_X; ++Row) Draw_Row(Row); 
        MOVS     R4,#+11
        B.N      ??Draw_Window_0
??Draw_Window_1:
        BL       Draw_Row
        ADDS     R4,R4,#+1
        UXTH     R4,R4
??Draw_Window_0:
        MOVS     R0,R4
        MOVS     R1,#+312
        CMP      R0,R1
        BCC.N    ??Draw_Window_1
//  585   __LCD_DMA_Ready();
        _BLF     __LCD_DMA_Ready,??__LCD_DMA_Ready??rT
//  586   __Row_DMA_Ready();
        POP      {R4,R5,LR}       ;; Pop
        CFI R4 SameValue
        CFI R5 SameValue
        CFI ?RET R14
        CFI CFA R13+0
        _BF.W    __Row_DMA_Ready,??__Row_DMA_Ready??rT
        CFI EndBlock cfiBlock5
//  587 }

        RSEG CODE:CODE:NOROOT(2)
        DATA
??DataTable8:
        DC32     Row_Base1

        RSEG CODE:CODE:NOROOT(2)
        DATA
??DataTable9:
        DC32     LCD_Buffer1
//  588 /*******************************************************************************
//  589  Draw_Mark :  
//  590 *******************************************************************************/

        RSEG CODE:CODE:NOROOT(2)
        CFI Block cfiBlock6 Using cfiCommon0
        CFI Function Draw_Mark
        THUMB
//  591 void Draw_Mark(u16 m, u16 n)						
//  592 { 
Draw_Mark:
        LDR.N    R2,??DataTable13  ;; Title
        PUSH     {R4-R11,LR}
        CFI ?RET Frame(CFA, -4)
        CFI R11 Frame(CFA, -8)
        CFI R10 Frame(CFA, -12)
        CFI R9 Frame(CFA, -16)
        CFI R8 Frame(CFA, -20)
        CFI R7 Frame(CFA, -24)
        CFI R6 Frame(CFA, -28)
        CFI R5 Frame(CFA, -32)
        CFI R4 Frame(CFA, -36)
        CFI CFA R13+36
        SUB      SP,SP,#+8
        CFI CFA R13+44
        MOV      R8,R0
        LDR.N    R0,??DataTable12  ;; Color
        STRH     R1,[SP, #+0]
        MOV      R9,R0
        ADDS     R10,R9,R1, LSL #+2
        MOV      R0,R8
        MOVS     R1,#+80
        CMP      R0,#+4
        MLA      R11,R0,R1,R2
        BCS.N    ??Draw_Mark_0
//  593   u16 i, j, Tmp;
//  594   
//  595   if(m < 4)  if(Title[m][POSI].Value > 200-3) return;
        LDRSH    R0,[R11, #+76]
        CMP      R0,#+198
        BGE.N    ??Draw_Mark_1
//  596   else       if(V_Trigg[n].Value > 200-3)     return;  
        LDRSH    R0,[R10, #+32]
        CMP      R0,#+198
        BGE.N    ??Draw_Mark_1
??Draw_Mark_0:
        MOVS     R4,#+0
        B.N      ??Draw_Mark_2
//  597   
//  598   for(i = 0; i <= 10; ++i){
//  599     if(i < 7){
//  600       if(m < 4){
//  601         Tmp = Mark_TAB[m][i];
//  602         __Point_SCR(i, Title[m][POSI].Value +(MIN_Y-4));
//  603       } else {
//  604         Tmp = Mark_TAB[4][i];
//  605         __Point_SCR(i,     V_Trigg[n].Value +(MIN_Y-4));
//  606       }
//  607       for(j = 0; j < 8; ++j){
//  608         if(Tmp & 1) __LCD_SetPixl(Color[SCRN]);
//  609         else        __LCD_SetPixl(Color[n]);
//  610         Tmp >>= 1;
//  611       }
//  612       __LCD_SetPixl(Color[n]);
//  613     } else {
//  614       if(m < 4){
//  615         __Point_SCR(i, Title[m][POSI].Value +(MIN_Y-10)+ i);
//  616         for(j=Title[m][POSI].Value+(MIN_Y-10)+i;j<(Title[m][POSI].Value+(MIN_Y+11)-i);++j) 
//  617           __LCD_SetPixl(Color[n]); 
//  618       } else { 
//  619         __Point_SCR(i,     V_Trigg[n].Value +(MIN_Y-10)+ i);   
//  620         for(j=V_Trigg[n].Value+(MIN_Y-10)+i;j<(V_Trigg[n].Value+(MIN_Y+11)-i);++j) 
//  621           __LCD_SetPixl(Color[n]); 
??Draw_Mark_3:
        LDRH     R0,[R5, #+0]
        ADDS     R7,R7,#+1
        UXTH     R7,R7
        _BLF     __LCD_SetPixl,??__LCD_SetPixl??rT
??Draw_Mark_4:
        LDR      R1,[SP, #+4]
        LDRSH    R1,[R1, #+0]
        ADDS     R1,R1,#+24
        SUBS     R1,R1,R4
        CMP      R7,R1
        BLT.N    ??Draw_Mark_3
??Draw_Mark_5:
        ADDS     R4,R4,#+1
        UXTH     R4,R4
??Draw_Mark_2:
        CMP      R4,#+11
        BCS.N    ??Draw_Mark_1
        LDRH     R0,[SP, #+0]
        ADDS     R5,R9,R0, LSL #+1
        CMP      R4,#+7
        BCS.N    ??Draw_Mark_6
        LDR.N    R0,??Draw_Mark_7  ;; Mark_TAB
        MOV      R1,R8
        CMP      R1,#+4
        BCS.N    ??Draw_Mark_8
        MOVS     R2,#+7
        MLA      R0,R1,R2,R0
        LDRSH    R1,[R11, #+76]
        LDRB     R6,[R0, R4]
        B.N      ??Draw_Mark_9
??Draw_Mark_8:
        LDRSH    R1,[R10, #+32]
        ADDS     R0,R0,R4
        LDRB     R6,[R0, #+28]
??Draw_Mark_9:
        ADDS     R1,R1,#+9
        UXTH     R1,R1
        MOVS     R0,R4
        _BLF     __Point_SCR,??__Point_SCR??rT
        MOVS     R7,#+0
        B.N      ??Draw_Mark_10
??Draw_Mark_11:
        LDRH     R0,[R5, #+0]
??Draw_Mark_12:
        _BLF     __LCD_SetPixl,??__LCD_SetPixl??rT
        LSRS     R6,R6,#+1
        ADDS     R7,R7,#+1
        UXTH     R7,R7
??Draw_Mark_10:
        CMP      R7,#+8
        BCS.N    ??Draw_Mark_13
        LSLS     R0,R6,#+31
        BPL.N    ??Draw_Mark_11
        LDRH     R0,[R9, #+10]
        B.N      ??Draw_Mark_12
??Draw_Mark_13:
        LDRH     R0,[R5, #+0]
        _BLF     __LCD_SetPixl,??__LCD_SetPixl??rT
        B.N      ??Draw_Mark_5
??Draw_Mark_6:
        MOV      R0,R8
        CMP      R0,#+4
        BCS.N    ??Draw_Mark_14
        LDRSH    R1,[R11, #+76]
        MOVS     R0,R4
        ADDS     R1,R0,R1
        ADDS     R1,R1,#+3
        UXTH     R1,R1
        _BLF     __Point_SCR,??__Point_SCR??rT
        LDRSH    R1,[R11, #+76]
        ADDS     R7,R4,R1
        ADDS     R7,R7,#+3
        UXTH     R7,R7
??Draw_Mark_15:
        LDRSH    R1,[R11, #+76]
        ADDS     R1,R1,#+24
        SUBS     R1,R1,R4
        CMP      R7,R1
        BGE.N    ??Draw_Mark_5
        LDRH     R0,[R5, #+0]
        ADDS     R7,R7,#+1
        UXTH     R7,R7
        _BLF     __LCD_SetPixl,??__LCD_SetPixl??rT
        B.N      ??Draw_Mark_15
??Draw_Mark_14:
        LDRSH    R1,[R10, #+32]
        MOVS     R0,R4
        ADDS     R1,R0,R1
        ADDS     R1,R1,#+3
        UXTH     R1,R1
        _BLF     __Point_SCR,??__Point_SCR??rT
        LDRSH    R1,[R10, #+32]
        LDRH     R0,[SP, #+0]
        ADDS     R7,R4,R1
        ADDS     R7,R7,#+3
        UXTH     R7,R7
        MOV      R1,R9
        ADDS     R1,R1,#+32
        ADDS     R0,R1,R0, LSL #+2
        STR      R0,[SP, #+4]
        B.N      ??Draw_Mark_4
//  622       }
//  623     }
//  624   }
??Draw_Mark_1:
        ADD      SP,SP,#+8
        CFI CFA R13+36
        POP      {R4-R11,PC}      ;; return
        DATA
??Draw_Mark_7:
        DC32     Mark_TAB
        CFI EndBlock cfiBlock6
//  625 }
//  626 /*******************************************************************************
//  627  Update_Mark :  
//  628 *******************************************************************************/

        RSEG CODE:CODE:NOROOT(2)
        CFI Block cfiBlock7 Using cfiCommon0
        CFI Function Update_Mark
        THUMB
//  629 void Update_Mark(void)						
//  630 { 
Update_Mark:
        PUSH     {R4-R7,R9,LR}
        CFI ?RET Frame(CFA, -4)
        CFI R9 Frame(CFA, -8)
        CFI R7 Frame(CFA, -12)
        CFI R6 Frame(CFA, -16)
        CFI R5 Frame(CFA, -20)
        CFI R4 Frame(CFA, -24)
        CFI CFA R13+24
//  631   s16 i, Tmp; 
//  632   u8  j;
//  633   
//  634   __Row_DMA_Ready();
//  635   for(i = 0; i <= 10; ++i){
        LDR.N    R4,??DataTable12  ;; Color
        _BLF     __Row_DMA_Ready,??__Row_DMA_Ready??rT
        MOVS     R5,#+0
        MOVS     R7,#+12
//  636     __Point_SCR(i, MIN_Y-1);
??Update_Mark_0:
        MOVS     R1,#+12
        UXTH     R0,R5
        _BLF     __Point_SCR,??__Point_SCR??rT
//  637     for(j = MIN_Y-1; j < MAX_Y+2; ++j)  __LCD_SetPixl(Color[SCRN]);   // Clear row
        MOV      R6,R7
        B.N      ??Update_Mark_1
??Update_Mark_2:
        LDRH     R0,[R4, #+10]
        ADDS     R6,R6,#+1
        UXTB     R6,R6
        _BLF     __LCD_SetPixl,??__LCD_SetPixl??rT
??Update_Mark_1:
        CMP      R6,#+215
        BCC.N    ??Update_Mark_2
//  638   }
        ADDS     R5,R5,#+1
        CMP      R5,#+11
        BLT.N    ??Update_Mark_0
//  639   if(_1_source  != HIDE)    Draw_Mark(TRACK1, TRACK1); // Display Track1 mark
        LDR.N    R5,??DataTable13  ;; Title
        MOVS     R6,R5
        LDRSH    R0,[R6, #+16]!
        CBZ      R0,??Update_Mark_3
        MOVS     R1,#+0
        MOVS     R0,#+0
        BL       Draw_Mark
//  640   if(_2_source  != HIDE)    Draw_Mark(TRACK2, TRACK2); // Display Track1 mark
??Update_Mark_3:
        LDRSH    R0,[R6, #+80]
        CBZ      R0,??Update_Mark_4
        MOVS     R1,#+1
        MOVS     R0,#+1
        BL       Draw_Mark
//  641   if(_3_source  != HIDE)    Draw_Mark(TRACK3, TRACK3); // Display Track1 mark
??Update_Mark_4:
        MOVS     R6,R5
        LDRSH    R0,[R6, #+176]!
        CBZ      R0,??Update_Mark_5
        MOVS     R1,#+2
        MOVS     R0,#+2
        BL       Draw_Mark
//  642   if(_4_source  != HIDE)    Draw_Mark(TRACK4, TRACK4); // Display Track1 mark
??Update_Mark_5:
        LDRSH    R0,[R6, #+80]
        CBZ      R0,??Update_Mark_6
        MOVS     R1,#+3
        MOVS     R0,#+3
        BL       Draw_Mark
//  643   if(_Tr_source == TRACK1)  Draw_Mark(TRIGG,  TRACK1); // Display Trigg1 mark
??Update_Mark_6:
        ADDW     R6,R5,#+456
        LDRSH    R0,[R6, #+120]
        CBNZ     R0,??Update_Mark_7
        MOVS     R1,#+0
        MOVS     R0,#+7
        BL       Draw_Mark
//  644   if(_Tr_source == TRACK2)  Draw_Mark(TRIGG,  TRACK2); // Display Trigg1 mark
??Update_Mark_7:
        LDRSH    R0,[R6, #+120]
        CMP      R0,#+1
        ITTT    EQ 
        MOVEQ    R1,#+1
        MOVEQ    R0,#+7
        BLEQ     Draw_Mark
//  645   if(_Tr_source == TRACK3)  Draw_Mark(TRIGG,  TRACK3); // Display Trigg1 mark
        LDRSH    R0,[R6, #+120]
        CMP      R0,#+2
        ITTT    EQ 
        MOVEQ    R1,#+2
        MOVEQ    R0,#+7
        BLEQ     Draw_Mark
//  646   if(_Tr_source == TRACK4)  Draw_Mark(TRIGG,  TRACK4); // Display Trigg1 mark
        LDRSH    R0,[R6, #+120]
        CMP      R0,#+3
        ITTT    EQ 
        MOVEQ    R1,#+3
        MOVEQ    R0,#+7
        BLEQ     Draw_Mark
//  647     
//  648   __Point_SCR(MAX_X+1, MIN_Y-1);
        MOVS     R1,#+12
        MOVS     R0,#+312
        _BLF     __Point_SCR,??__Point_SCR??rT
//  649   for(j = MIN_Y-1; j < MAX_Y+2; ++j) __LCD_SetPixl(Color[SCRN]); // Clear last row 
        B.N      ??Update_Mark_8
??Update_Mark_9:
        LDRH     R0,[R4, #+10]
        ADDS     R7,R7,#+1
        UXTB     R7,R7
        _BLF     __LCD_SetPixl,??__LCD_SetPixl??rT
??Update_Mark_8:
        CMP      R7,#+215
        BCC.N    ??Update_Mark_9
//  650   for(i = MIN_X; i <= MAX_X+1; ++i)
        LDR.N    R0,??Update_Mark_10  ;; 0x139
        MOVS     R7,#+11
        MOV      R9,R0
//  651   {
//  652     __Point_SCR(i, MIN_Y-1);
??Update_Mark_11:
        MOVS     R1,#+12
        UXTH     R0,R7
        _BLF     __Point_SCR,??__Point_SCR??rT
//  653     __LCD_SetPixl(Color[SCRN]);                            // Clear first column
        LDRH     R0,[R4, #+10]
        _BLF     __LCD_SetPixl,??__LCD_SetPixl??rT
//  654     __Point_SCR(i, MAX_Y+1);
        MOVS     R1,#+214
        UXTH     R0,R7
        _BLF     __Point_SCR,??__Point_SCR??rT
//  655     __LCD_SetPixl(Color[SCRN]);                            // Clear last column
        LDRH     R0,[R4, #+10]
//  656   }
        ADDS     R7,R7,#+1
        SXTH     R7,R7
        _BLF     __LCD_SetPixl,??__LCD_SetPixl??rT
        CMP      R7,R9
        BLT.N    ??Update_Mark_11
//  657   __Point_SCR(MIN_X-1, Title[V_VERNIE][V1].Value +(MIN_Y - 2));
        ADDW     R9,R5,#+656
        LDRSH    R1,[R9, #+0]
        MOVS     R0,#+10
//  658   for(i = 0; i < 5; ++i) __LCD_SetPixl(Color[VERNIE]);
        MOVS     R7,#+0
        ADDS     R1,R1,#+11
        UXTH     R1,R1
        _BLF     __Point_SCR,??__Point_SCR??rT
??Update_Mark_12:
        LDRH     R0,[R4, #+8]
        ADDS     R7,R7,#+1
        _BLF     __LCD_SetPixl,??__LCD_SetPixl??rT
        CMP      R7,#+5
        BLT.N    ??Update_Mark_12
//  659   __Point_SCR(MIN_X-1, Title[V_VERNIE][V2].Value +(MIN_Y - 2));
        LDRSH    R1,[R9, #+20]
        MOVS     R0,#+10
//  660   for(i = 0; i < 5; ++i) __LCD_SetPixl(Color[VERNIE]);
        MOVS     R7,#+0
        ADDS     R1,R1,#+11
        UXTH     R1,R1
        _BLF     __Point_SCR,??__Point_SCR??rT
??Update_Mark_13:
        LDRH     R0,[R4, #+8]
        ADDS     R7,R7,#+1
        _BLF     __LCD_SetPixl,??__LCD_SetPixl??rT
        CMP      R7,#+5
        BLT.N    ??Update_Mark_13
//  661   __Point_SCR(MAX_X+1, Title[V_VERNIE][V1].Value +(MIN_Y - 2));
        LDRSH    R1,[R9, #+0]
        MOVS     R0,#+312
//  662   for(i = 0; i < 5; ++i) __LCD_SetPixl(Color[VERNIE]);
        MOVS     R7,#+0
        ADDS     R1,R1,#+11
        UXTH     R1,R1
        _BLF     __Point_SCR,??__Point_SCR??rT
??Update_Mark_14:
        LDRH     R0,[R4, #+8]
        ADDS     R7,R7,#+1
        _BLF     __LCD_SetPixl,??__LCD_SetPixl??rT
        CMP      R7,#+5
        BLT.N    ??Update_Mark_14
//  663   __Point_SCR(MAX_X+1, Title[V_VERNIE][V2].Value +(MIN_Y - 2));
        LDRSH    R1,[R9, #+20]
        MOVS     R0,#+312
//  664   for(i = 0; i < 5; ++i) __LCD_SetPixl(Color[VERNIE]);
        MOVS     R7,#+0
        ADDS     R1,R1,#+11
        UXTH     R1,R1
        _BLF     __Point_SCR,??__Point_SCR??rT
??Update_Mark_15:
        LDRH     R0,[R4, #+8]
        ADDS     R7,R7,#+1
        _BLF     __LCD_SetPixl,??__LCD_SetPixl??rT
        CMP      R7,#+5
        BLT.N    ??Update_Mark_15
//  665   
//  666   Tmp =(MIN_X + 150)- _X_posi.Value;
        LDRSH    R1,[R6, #+0]
        MOVS     R0,#+161
        SUBS     R6,R0,R1
        SXTH     R6,R6
//  667   if(Tmp > MIN_X){
        CMP      R6,#+12
        BLT.N    ??Update_Mark_16
//  668     for(i = Tmp - 2; i <= Tmp + 2; ++i){
        SUBS     R7,R6,#+2
        SXTH     R7,R7
        ADDS     R6,R6,#+2
        CMP      R6,R7
        BLT.N    ??Update_Mark_16
//  669       __Point_SCR(i, MIN_Y-1);
??Update_Mark_17:
        MOVS     R1,#+12
        UXTH     R0,R7
        _BLF     __Point_SCR,??__Point_SCR??rT
//  670       __LCD_SetPixl(Color[X_POSI]);
        LDRH     R0,[R4, #+12]
        _BLF     __LCD_SetPixl,??__LCD_SetPixl??rT
//  671       __Point_SCR(i, MAX_Y+1);
        MOVS     R1,#+214
        UXTH     R0,R7
        _BLF     __Point_SCR,??__Point_SCR??rT
//  672       __LCD_SetPixl(Color[X_POSI]);
        LDRH     R0,[R4, #+12]
//  673     }
        ADDS     R7,R7,#+1
        SXTH     R7,R7
        _BLF     __LCD_SetPixl,??__LCD_SetPixl??rT
        CMP      R6,R7
        BGE.N    ??Update_Mark_17
//  674   }
//  675   Tmp = MIN_X + Title[T_VERNIE][T1].Value;
??Update_Mark_16:
        ADDW     R5,R5,#+816
        LDRSH    R6,[R5, #+0]
        ADDS     R6,R6,#+11
        SXTH     R6,R6
//  676   for(i = Tmp - 2; i <= Tmp + 2; ++i){
        SUBS     R7,R6,#+2
        SXTH     R7,R7
        ADDS     R6,R6,#+2
        CMP      R6,R7
        BLT.N    ??Update_Mark_18
//  677     __Point_SCR(i, MIN_Y-1);
??Update_Mark_19:
        MOVS     R1,#+12
        UXTH     R0,R7
        _BLF     __Point_SCR,??__Point_SCR??rT
//  678     __LCD_SetPixl(Color[VERNIE]);
        LDRH     R0,[R4, #+8]
        _BLF     __LCD_SetPixl,??__LCD_SetPixl??rT
//  679     __Point_SCR(i, MAX_Y+1);
        MOVS     R1,#+214
        UXTH     R0,R7
        _BLF     __Point_SCR,??__Point_SCR??rT
//  680     __LCD_SetPixl(Color[VERNIE]);
        LDRH     R0,[R4, #+8]
//  681   }
        ADDS     R7,R7,#+1
        SXTH     R7,R7
        _BLF     __LCD_SetPixl,??__LCD_SetPixl??rT
        CMP      R6,R7
        BGE.N    ??Update_Mark_19
//  682   Tmp = MIN_X + Title[T_VERNIE][T2].Value;
??Update_Mark_18:
        LDRSH    R5,[R5, #+20]
        ADDS     R5,R5,#+11
        SXTH     R5,R5
//  683   for(i = Tmp - 2; i <= Tmp + 2; ++i){
        SUBS     R6,R5,#+2
        SXTH     R6,R6
        ADDS     R5,R5,#+2
        CMP      R5,R6
        BLT.N    ??Update_Mark_20
//  684     __Point_SCR(i, MIN_Y-1);
??Update_Mark_21:
        MOVS     R1,#+12
        UXTH     R0,R6
        _BLF     __Point_SCR,??__Point_SCR??rT
//  685     __LCD_SetPixl(Color[VERNIE]);
        LDRH     R0,[R4, #+8]
        _BLF     __LCD_SetPixl,??__LCD_SetPixl??rT
//  686     __Point_SCR(i, MAX_Y+1);
        MOVS     R1,#+214
        UXTH     R0,R6
        _BLF     __Point_SCR,??__Point_SCR??rT
//  687     __LCD_SetPixl(Color[VERNIE]);
        LDRH     R0,[R4, #+8]
//  688   }
        ADDS     R6,R6,#+1
        SXTH     R6,R6
        _BLF     __LCD_SetPixl,??__LCD_SetPixl??rT
        CMP      R5,R6
        BGE.N    ??Update_Mark_21
//  689 }
??Update_Mark_20:
        POP      {R4-R7,R9,PC}
        Nop      
        DATA
??Update_Mark_10:
        DC32     0x139
        CFI EndBlock cfiBlock7

        RSEG CODE:CODE:NOROOT(2)
        DATA
??DataTable12:
        DC32     Color

        RSEG CODE:CODE:NOROOT(2)
        DATA
??DataTable13:
        DC32     Title
//  690 /*******************************************************************************
//  691  Update_View_Area: 刷新显示窗口位置指示 
//  692 *******************************************************************************/

        RSEG CODE:CODE:NOROOT(2)
        CFI Block cfiBlock8 Using cfiCommon0
        CFI Function Update_View_Area
        THUMB
//  693 void Update_View_Area(void)
//  694 {  
Update_View_Area:
        PUSH     {R4-R7,R9,LR}
        CFI ?RET Frame(CFA, -4)
        CFI R9 Frame(CFA, -8)
        CFI R7 Frame(CFA, -12)
        CFI R6 Frame(CFA, -16)
        CFI R5 Frame(CFA, -20)
        CFI R4 Frame(CFA, -24)
        CFI CFA R13+24
//  695   s16 i, j, k;
//  696   {
//  697     __Point_SCR(89,  0);
        MOVS     R1,#+0
//  698     for(j=0; j<12; ++j) __LCD_SetPixl(ORANGE); 
        LDR.N    R4,??Update_View_Area_0  ;; 0x51f
        MOVS     R0,#+89
        MOVS     R5,#+0
        _BLF     __Point_SCR,??__Point_SCR??rT
??Update_View_Area_1:
        ADDS     R5,R5,#+1
        MOVS     R0,R4
        _BLF     __LCD_SetPixl,??__LCD_SetPixl??rT
        CMP      R5,#+12
        BLT.N    ??Update_View_Area_1
//  699     __Point_SCR(90,  0);
        MOVS     R1,#+0
        MOVS     R0,#+90
        _BLF     __Point_SCR,??__Point_SCR??rT
//  700     for(j=0; j<12; ++j) __LCD_SetPixl(ORANGE); 
        MOVS     R5,#+0
??Update_View_Area_2:
        MOVS     R0,R4
        _BLF     __LCD_SetPixl,??__LCD_SetPixl??rT
        ADDS     R5,R5,#+1
        CMP      R5,#+12
        BLT.N    ??Update_View_Area_2
//  701     __Point_SCR(308, 0);
        MOVS     R1,#+0
        MOVS     R0,#+308
        _BLF     __Point_SCR,??__Point_SCR??rT
//  702     for(j=0; j<12; ++j) __LCD_SetPixl(ORANGE); 
        MOVS     R5,#+0
??Update_View_Area_3:
        MOVS     R0,R4
        _BLF     __LCD_SetPixl,??__LCD_SetPixl??rT
        ADDS     R5,R5,#+1
        CMP      R5,#+12
        BLT.N    ??Update_View_Area_3
//  703     __Point_SCR(309, 0);
        LDR.N    R0,??Update_View_Area_0+0x4  ;; 0x135
        MOVS     R1,#+0
//  704     for(j=0; j<12; ++j) __LCD_SetPixl(ORANGE); 
        MOVS     R6,#+0
        _BLF     __Point_SCR,??__Point_SCR??rT
??Update_View_Area_4:
        MOVS     R0,R4
        _BLF     __LCD_SetPixl,??__LCD_SetPixl??rT
        ADDS     R6,R6,#+1
        CMP      R6,#+12
        BLT.N    ??Update_View_Area_4
//  705 
//  706     for(i=91; i<307; i+=8){
        LDR.N    R0,??Update_View_Area_0+0x8  ;; 0x133
        MOVS     R5,#+91
        MOV      R9,R0
//  707       for(j=0; j<8; ++j){
??Update_View_Area_5:
        MOVS     R6,#+0
//  708         __Point_SCR(i+j, 0);
??Update_View_Area_6:
        MOVS     R1,#+0
        ADDS     R0,R5,R6
        UXTH     R0,R0
        _BLF     __Point_SCR,??__Point_SCR??rT
//  709         for(k=0; k<12; ++k){
        MOVS     R7,#+0
//  710           if((0x01 << k)& RULE_BASE[j]) __LCD_SetPixl(ORANGE);
??Update_View_Area_7:
        LDR.N    R1,??Update_View_Area_0+0xC  ;; RULE_BASE
        MOVS     R0,#+1
        LSLS     R0,R0,R7
        LDRH     R1,[R1, R6, LSL #+1]
        TST      R0,R1
        BEQ.N    ??Update_View_Area_8
        MOVS     R0,R4
        B.N      ??Update_View_Area_9
//  711           else                          __LCD_SetPixl(BLACK);
??Update_View_Area_8:
        MOVS     R0,#+0
??Update_View_Area_9:
        _BLF     __LCD_SetPixl,??__LCD_SetPixl??rT
//  712         }
        ADDS     R7,R7,#+1
        CMP      R7,#+12
        BLT.N    ??Update_View_Area_7
//  713       }
        ADDS     R6,R6,#+1
        CMP      R6,#+8
        BLT.N    ??Update_View_Area_6
//  714     }
        ADDS     R5,R5,#+8
        SXTH     R5,R5
        CMP      R5,R9
        BLT.N    ??Update_View_Area_5
//  715     __Point_SCR(0  + 91 + (_X_posi.Value * 200)/3796, 0); 
        LDR.N    R4,??Update_View_Area_0+0x10  ;; Title + 456
        LDR.N    R5,??Update_View_Area_0+0x14  ;; 0xed4
//  716     for(j=0;j<9;++j) __LCD_SetPixl(WHT);
        LDR.N    R6,??Update_View_Area_0+0x18  ;; 0xffff
        MOVS     R1,#+0
        LDRSH    R0,[R4, R1]
        MOVS     R2,#+200
        MOVS     R7,#+0
        MULS     R0,R2,R0
        SDIV     R0,R0,R5
        ADDS     R0,R0,#+91
        UXTH     R0,R0
        _BLF     __Point_SCR,??__Point_SCR??rT
??Update_View_Area_10:
        ADDS     R7,R7,#+1
        MOVS     R0,R6
        _BLF     __LCD_SetPixl,??__LCD_SetPixl??rT
        CMP      R7,#+9
        BLT.N    ??Update_View_Area_10
//  717     __Point_SCR(15 + 91 + (_X_posi.Value * 200)/3796, 0);
        MOVS     R1,#+0
        LDRSH    R0,[R4, R1]
        MOVS     R2,#+200
//  718     for(j=0;j<9;++j) __LCD_SetPixl(WHT);
        MOVS     R7,#+0
        MULS     R0,R2,R0
        SDIV     R0,R0,R5
        ADDS     R0,R0,#+106
        UXTH     R0,R0
        _BLF     __Point_SCR,??__Point_SCR??rT
??Update_View_Area_11:
        MOVS     R0,R6
        _BLF     __LCD_SetPixl,??__LCD_SetPixl??rT
        ADDS     R7,R7,#+1
        CMP      R7,#+9
        BLT.N    ??Update_View_Area_11
//  719     for(i=0;i<16;++i){
        MOVS     R7,#+0
//  720       __Point_SCR(i + 91 +(_X_posi.Value * 200)/3796, 0);
??Update_View_Area_12:
        MOVS     R1,#+0
        LDRSH    R0,[R4, R1]
        MOVS     R2,#+200
        MULS     R0,R2,R0
        SDIV     R0,R0,R5
        ADDS     R0,R0,R7
        ADDS     R0,R0,#+91
        UXTH     R0,R0
        _BLF     __Point_SCR,??__Point_SCR??rT
//  721       __LCD_SetPixl(WHT);
        MOVS     R0,R6
        _BLF     __LCD_SetPixl,??__LCD_SetPixl??rT
//  722       __Point_SCR(i + 91 +(_X_posi.Value * 200)/3796, 9);
        LDRSH    R0,[R4, #+0]
        MOVS     R2,#+200
        MOVS     R1,#+9
        MULS     R0,R2,R0
        SDIV     R0,R0,R5
        ADDS     R0,R0,R7
        ADDS     R0,R0,#+91
        UXTH     R0,R0
        _BLF     __Point_SCR,??__Point_SCR??rT
//  723       __LCD_SetPixl(WHT);
        MOVS     R0,R6
        _BLF     __LCD_SetPixl,??__LCD_SetPixl??rT
//  724     }
        ADDS     R7,R7,#+1
        CMP      R7,#+16
        BLT.N    ??Update_View_Area_12
//  725     _X_View.Flag &= !UPDAT;
        MOVS     R0,#+0
        STRB     R0,[R4, #+22]
//  726   }
//  727 }
        POP      {R4-R7,R9,PC}
        DATA
??Update_View_Area_0:
        DC32     0x51f
        DC32     0x135
        DC32     0x133
        DC32     RULE_BASE
        DC32     Title + 456
        DC32     0xed4
        DC32     0xffff
        CFI EndBlock cfiBlock8

        RSEG CODE:CODE:NOROOT(2)
        CFI Block cfiBlock9 Using cfiCommon0
        CFI NoFunction
        THUMB
??__LCD_Set_Block??rT:
        PUSH     {R3}
        CFI CFA R13+4
        LDR.N    R3,??Subroutine0_0  ;; __LCD_Set_Block
        MOV      R12,R3
        POP      {R3}
        CFI CFA R13+0
        BX       R12
        Nop      
        DATA
??Subroutine0_0:
        DC32     __LCD_Set_Block
        CFI EndBlock cfiBlock9

        RSEG CODE:CODE:NOROOT(2)
        CFI Block cfiBlock10 Using cfiCommon0
        CFI NoFunction
        THUMB
??__LCD_SetPixl??rT:
        LDR.N    R3,??Subroutine1_0  ;; __LCD_SetPixl
        BX       R3
        DATA
??Subroutine1_0:
        DC32     __LCD_SetPixl
        CFI EndBlock cfiBlock10

        RSEG CODE:CODE:NOROOT(2)
        CFI Block cfiBlock11 Using cfiCommon0
        CFI NoFunction
        THUMB
??__Row_DMA_Ready??rT:
        LDR.N    R3,??Subroutine2_0  ;; __Row_DMA_Ready
        BX       R3
        DATA
??Subroutine2_0:
        DC32     __Row_DMA_Ready
        CFI EndBlock cfiBlock11

        RSEG CODE:CODE:NOROOT(2)
        CFI Block cfiBlock12 Using cfiCommon0
        CFI NoFunction
        THUMB
??__Point_SCR??rT:
        LDR.N    R3,??Subroutine3_0  ;; __Point_SCR
        BX       R3
        DATA
??Subroutine3_0:
        DC32     __Point_SCR
        CFI EndBlock cfiBlock12

        RSEG CODE:CODE:NOROOT(2)
        CFI Block cfiBlock13 Using cfiCommon0
        CFI NoFunction
        THUMB
??__Row_Copy??rT:
        LDR.N    R3,??Subroutine4_0  ;; __Row_Copy
        BX       R3
        DATA
??Subroutine4_0:
        DC32     __Row_Copy
        CFI EndBlock cfiBlock13

        RSEG CODE:CODE:NOROOT(2)
        CFI Block cfiBlock14 Using cfiCommon0
        CFI NoFunction
        THUMB
??__LCD_Copy??rT:
        LDR.N    R3,??Subroutine5_0  ;; __LCD_Copy
        BX       R3
        DATA
??Subroutine5_0:
        DC32     __LCD_Copy
        CFI EndBlock cfiBlock14

        RSEG CODE:CODE:NOROOT(2)
        CFI Block cfiBlock15 Using cfiCommon0
        CFI NoFunction
        THUMB
??rT??div32_t:
        PUSH     {R3}
        CFI CFA R13+4
        LDR.N    R3,??Subroutine6_0  ;; ??div32_t
        MOV      R12,R3
        POP      {R3}
        CFI CFA R13+0
        BX       R12
        Nop      
        DATA
??Subroutine6_0:
        DC32     ??div32_t
        CFI EndBlock cfiBlock15

        RSEG CODE:CODE:NOROOT(2)
        CFI Block cfiBlock16 Using cfiCommon0
        CFI NoFunction
        THUMB
??__LCD_DMA_Ready??rT:
        LDR.N    R3,??Subroutine7_0  ;; __LCD_DMA_Ready
        BX       R3
        DATA
??Subroutine7_0:
        DC32     __LCD_DMA_Ready
        CFI EndBlock cfiBlock16

        RSEG DATA_ID:CONST:SORT:NOROOT(2)
`?<Initializer for Color>`:
        DATA
        DC16 65504, 2047, 63519, 2016, 65535, 0, 1311, 63488, 65504, 31727
        DC16 65535, 2016, 63488, 31727, 2047, 31
`?<Initializer for V_Trigg>`:
        DC16 175
        DC8 6, 0
        DC16 116
        DC8 2, 0
        DC16 75
        DC8 6, 0
        DC16 35
        DC8 6, 0

        RSEG DATA_ID:CONST:SORT:NOROOT(0)
`?<Initializer for Vt1>`:
        DATA
        DC8 180

        RSEG DATA_ID:CONST:SORT:NOROOT(0)
`?<Initializer for Vt2>`:
        DATA
        DC8 128

        RSEG DATA_ID:CONST:SORT:NOROOT(0)
`?<Initializer for Vt3>`:
        DATA
        DC8 70

        RSEG DATA_ID:CONST:SORT:NOROOT(0)
`?<Initializer for Vt4>`:
        DATA
        DC8 30

        RSEG INITTAB:CODE:ROOT(2)
        DATA
?init?tab?DATA_Z:
        DCD      sfe(DATA_Z) - sfb(DATA_Z), sfb(DATA_Z), sfb(DATA_Z)

        RSEG DATA_ID:CONST:SORT:NOROOT(2)
`?*?DATA_ID`:

        RSEG INITTAB:CODE:ROOT(2)
        DATA
?init?tab?DATA_I:
        DCD      sfe(DATA_I) - sfb(DATA_I), sfb(DATA_I), sfb(DATA_ID)

        END
//  728 /******************************** END OF FILE *********************************/
// 
// 3 758 bytes in segment CODE
// 3 988 bytes in segment DATA_C
//    52 bytes in segment DATA_I
//    52 bytes in segment DATA_ID
//   960 bytes in segment DATA_Z
//    24 bytes in segment INITTAB
// 
// 3 678 bytes of CODE  memory (+ 104 bytes shared)
// 4 040 bytes of CONST memory
// 1 012 bytes of DATA  memory
//
//Errors: none
//Warnings: none
